---
triple:          'arm64-apple-darwin'
binary-path:     a.out
relocations:
  - { offsetInCU: 0x3E, offset: 0x3E, size: 0x8, addend: 0x0, symName: __Z8toString9TokenType, symObjAddr: 0x134, symBinAddr: 0x100002F28, symSize: 0x6A8 }
  - { offsetInCU: 0x67, offset: 0x67, size: 0x8, addend: 0x0, symName: __ZZ8toString9TokenTypeE7strings, symObjAddr: 0x79278, symBinAddr: 0x100014008, symSize: 0x0 }
  - { offsetInCU: 0x691A, offset: 0x691A, size: 0x8, addend: 0x0, symName: __ZNSt3__19__any_imp16__compare_typeidB7v160006IDnEEbPKSt9type_infoPKv, symObjAddr: 0x5FAC, symBinAddr: 0x100008DA0, symSize: 0xC4 }
  - { offsetInCU: 0x695D, offset: 0x695D, size: 0x8, addend: 0x0, symName: __ZNSt3__19__any_imp21__get_fallback_typeidB7v160006IDnEEPKvv, symObjAddr: 0x614C, symBinAddr: 0x100008F40, symSize: 0xC }
  - { offsetInCU: 0x6AA9, offset: 0x6AA9, size: 0x8, addend: 0x0, symName: __ZNSt3__19__any_imp16__compare_typeidB7v160006INS_12basic_stringIcNS_11char_traitsIcEENS_9allocatorIcEEEEEEbPKSt9type_infoPKv, symObjAddr: 0x6760, symBinAddr: 0x100009554, symSize: 0xC4 }
  - { offsetInCU: 0x6AEC, offset: 0x6AEC, size: 0x8, addend: 0x0, symName: __ZNSt3__19__any_imp21__get_fallback_typeidB7v160006INS_12basic_stringIcNS_11char_traitsIcEENS_9allocatorIcEEEEEEPKvv, symObjAddr: 0x6824, symBinAddr: 0x100009618, symSize: 0xC }
  - { offsetInCU: 0x6C12, offset: 0x6C12, size: 0x8, addend: 0x0, symName: __ZNSt3__19__any_imp16__compare_typeidB7v160006IdEEbPKSt9type_infoPKv, symObjAddr: 0x6D2C, symBinAddr: 0x100009B20, symSize: 0xC4 }
  - { offsetInCU: 0x6C55, offset: 0x6C55, size: 0x8, addend: 0x0, symName: __ZNSt3__19__any_imp21__get_fallback_typeidB7v160006IdEEPKvv, symObjAddr: 0x6DF0, symBinAddr: 0x100009BE4, symSize: 0xC }
  - { offsetInCU: 0x6C7C, offset: 0x6C7C, size: 0x8, addend: 0x0, symName: __ZNSt3__19__any_imp21__get_fallback_typeidB7v160006IKNS_12basic_stringIcNS_11char_traitsIcEENS_9allocatorIcEEEEEEPKvv, symObjAddr: 0x879C, symBinAddr: 0x10000B590, symSize: 0xC }
  - { offsetInCU: 0x6CA3, offset: 0x6CA3, size: 0x8, addend: 0x0, symName: __ZNSt3__19__any_imp21__get_fallback_typeidB7v160006IKdEEPKvv, symObjAddr: 0x8C7C, symBinAddr: 0x10000BA70, symSize: 0xC }
  - { offsetInCU: 0xF86A, offset: 0xF86A, size: 0x8, addend: 0x0, symName: __ZNSt3__124__put_character_sequenceB7v160006IcNS_11char_traitsIcEEEERNS_13basic_ostreamIT_T0_EES7_PKS4_m, symObjAddr: 0x1870, symBinAddr: 0x100004664, symSize: 0x1EC }
  - { offsetInCU: 0x10F8A, offset: 0x10F8A, size: 0x8, addend: 0x0, symName: __ZNSt3__17advanceB7v160006INS_21__tree_const_iteratorINS_12__value_typeINS_12basic_stringIcNS_11char_traitsIcEENS_9allocatorIcEEEE9TokenTypeEEPNS_11__tree_nodeISA_PvEElEEllvEEvRT_T0_, symObjAddr: 0xA1FC, symBinAddr: 0x10000CFF0, symSize: 0x50 }
  - { offsetInCU: 0x12CDB, offset: 0x12CDB, size: 0x8, addend: 0x0, symName: __ZNSt3__1lsB7v160006INS_11char_traitsIcEEEERNS_13basic_ostreamIcT_EES6_PKc, symObjAddr: 0xBB0, symBinAddr: 0x1000039A4, symSize: 0x48 }
  - { offsetInCU: 0x12D21, offset: 0x12D21, size: 0x8, addend: 0x0, symName: __ZNSt3__1neB7v160006IP5TokenEEbRKNS_11__wrap_iterIT_EES7_, symObjAddr: 0x1168, symBinAddr: 0x100003F5C, symSize: 0x34 }
  - { offsetInCU: 0x12D64, offset: 0x12D64, size: 0x8, addend: 0x0, symName: __ZNSt3__1lsB7v160006IcNS_11char_traitsIcEENS_9allocatorIcEEEERNS_13basic_ostreamIT_T0_EES9_RKNS_12basic_stringIS6_S7_T1_EE, symObjAddr: 0x11B4, symBinAddr: 0x100003FA8, symSize: 0x4C }
  - { offsetInCU: 0x12DBC, offset: 0x12DBC, size: 0x8, addend: 0x0, symName: __ZNSt3__17getlineB7v160006IcNS_11char_traitsIcEENS_9allocatorIcEEEERNS_13basic_istreamIT_T0_EES9_RNS_12basic_stringIS6_S7_T1_EE, symObjAddr: 0x1720, symBinAddr: 0x100004514, symSize: 0x5C }
  - { offsetInCU: 0x12E14, offset: 0x12E14, size: 0x8, addend: 0x0, symName: __ZNSt3__1lsB7v160006IcNS_11char_traitsIcEEEERNS_13basic_ostreamIT_T0_EES7_NS_17basic_string_viewIS4_S5_EE, symObjAddr: 0x1814, symBinAddr: 0x100004608, symSize: 0x5C }
  - { offsetInCU: 0x12E63, offset: 0x12E63, size: 0x8, addend: 0x0, symName: __ZNSt3__116__pad_and_outputB7v160006IcNS_11char_traitsIcEEEENS_19ostreambuf_iteratorIT_T0_EES6_PKS4_S8_S8_RNS_8ios_baseES4_, symObjAddr: 0x1A90, symBinAddr: 0x100004884, symSize: 0x240 }
  - { offsetInCU: 0x12F32, offset: 0x12F32, size: 0x8, addend: 0x0, symName: __ZNSt3__119__debug_db_insert_cB7v160006INS_12basic_stringIcNS_11char_traitsIcEENS_9allocatorIcEEEEEEvPT_, symObjAddr: 0x1F28, symBinAddr: 0x100004D1C, symSize: 0x10 }
  - { offsetInCU: 0x12F63, offset: 0x12F63, size: 0x8, addend: 0x0, symName: __ZNSt3__19use_facetB7v160006INS_5ctypeIcEEEERKT_RKNS_6localeE, symObjAddr: 0x2138, symBinAddr: 0x100004F2C, symSize: 0x2C }
  - { offsetInCU: 0x13432, offset: 0x13432, size: 0x8, addend: 0x0, symName: __ZNSt3__128__char_traits_length_checkedB7v160006INS_11char_traitsIcEEEEmPKNT_9char_typeE, symObjAddr: 0x2214, symBinAddr: 0x100005008, symSize: 0x24 }
  - { offsetInCU: 0x13467, offset: 0x13467, size: 0x8, addend: 0x0, symName: __ZNSt3__118__constexpr_strlenB7v160006EPKc, symObjAddr: 0x226C, symBinAddr: 0x100005060, symSize: 0x24 }
  - { offsetInCU: 0x13493, offset: 0x13493, size: 0x8, addend: 0x0, symName: __ZNSt3__119__debug_db_insert_cB7v160006INS_6vectorI5TokenNS_9allocatorIS2_EEEEEEvPT_, symObjAddr: 0x25AC, symBinAddr: 0x1000053A0, symSize: 0x10 }
  - { offsetInCU: 0x134C4, offset: 0x134C4, size: 0x8, addend: 0x0, symName: __ZNSt3__120__throw_out_of_rangeB7v160006EPKc, symObjAddr: 0x36CC, symBinAddr: 0x1000064C0, symSize: 0x64 }
  - { offsetInCU: 0x134EE, offset: 0x134EE, size: 0x8, addend: 0x0, symName: __ZNSt3__13minB7v160006ImEERKT_S3_S3_, symObjAddr: 0x375C, symBinAddr: 0x100006550, symSize: 0x2C }
  - { offsetInCU: 0x13531, offset: 0x13531, size: 0x8, addend: 0x0, symName: __ZNSt3__13minB7v160006ImNS_6__lessImmEEEERKT_S5_S5_T0_, symObjAddr: 0x3860, symBinAddr: 0x100006654, symSize: 0x54 }
  - { offsetInCU: 0x135C6, offset: 0x135C6, size: 0x8, addend: 0x0, symName: __ZNSt3__112__to_addressB7v160006I5TokenEEPT_S3_, symObjAddr: 0x3C74, symBinAddr: 0x100006A68, symSize: 0x14 }
  - { offsetInCU: 0x135FB, offset: 0x135FB, size: 0x8, addend: 0x0, symName: __ZNSt3__115__debug_db_swapB7v160006INS_12basic_stringIcNS_11char_traitsIcEENS_9allocatorIcEEEEEEvPT_S8_, symObjAddr: 0x3FA0, symBinAddr: 0x100006D94, symSize: 0x14 }
  - { offsetInCU: 0x1363A, offset: 0x1363A, size: 0x8, addend: 0x0, symName: __ZNSt3__13maxB7v160006ImEERKT_S3_S3_, symObjAddr: 0x4518, symBinAddr: 0x10000730C, symSize: 0x2C }
  - { offsetInCU: 0x13867, offset: 0x13867, size: 0x8, addend: 0x0, symName: __ZNSt3__120__throw_length_errorB7v160006EPKc, symObjAddr: 0x4604, symBinAddr: 0x1000073F8, symSize: 0x64 }
  - { offsetInCU: 0x1388F, offset: 0x1388F, size: 0x8, addend: 0x0, symName: __ZNSt3__13maxB7v160006ImNS_6__lessImmEEEERKT_S5_S5_T0_, symObjAddr: 0x4748, symBinAddr: 0x10000753C, symSize: 0x54 }
  - { offsetInCU: 0x138E9, offset: 0x138E9, size: 0x8, addend: 0x0, symName: __ZNSt3__119__allocate_at_leastB7v160006INS_9allocatorI5TokenEEEENS_19__allocation_resultINS_16allocator_traitsIT_E7pointerEEERS6_m, symObjAddr: 0x48B8, symBinAddr: 0x1000076AC, symSize: 0x40 }
  - { offsetInCU: 0x1392C, offset: 0x1392C, size: 0x8, addend: 0x0, symName: __ZNSt3__117__libcpp_allocateB7v160006Emm, symObjAddr: 0x4A40, symBinAddr: 0x100007834, symSize: 0x60 }
  - { offsetInCU: 0x13986, offset: 0x13986, size: 0x8, addend: 0x0, symName: __ZNSt3__124__is_overaligned_for_newB7v160006Em, symObjAddr: 0x4AA0, symBinAddr: 0x100007894, symSize: 0x20 }
  - { offsetInCU: 0x139B4, offset: 0x139B4, size: 0x8, addend: 0x0, symName: __ZNSt3__121__libcpp_operator_newB7v160006IJmSt11align_val_tEEEPvDpT_, symObjAddr: 0x4AC0, symBinAddr: 0x1000078B4, symSize: 0x2C }
  - { offsetInCU: 0x13A01, offset: 0x13A01, size: 0x8, addend: 0x0, symName: __ZNSt3__121__libcpp_operator_newB7v160006IJmEEEPvDpT_, symObjAddr: 0x4AEC, symBinAddr: 0x1000078E0, symSize: 0x24 }
  - { offsetInCU: 0x13A3A, offset: 0x13A3A, size: 0x8, addend: 0x0, symName: __ZNSt3__142__uninitialized_allocator_move_if_noexceptB7v160006INS_9allocatorI5TokenEENS_16reverse_iteratorIPS2_EES6_S6_EET2_RT_T0_T1_S7_, symObjAddr: 0x4C48, symBinAddr: 0x100007A3C, symSize: 0x12C }
  - { offsetInCU: 0x13ADA, offset: 0x13ADA, size: 0x8, addend: 0x0, symName: __ZNSt3__14swapB7v160006IP5TokenEENS_9enable_ifIXaasr21is_move_constructibleIT_EE5valuesr18is_move_assignableIS4_EE5valueEvE4typeERS4_S7_, symObjAddr: 0x4DC0, symBinAddr: 0x100007BB4, symSize: 0x3C }
  - { offsetInCU: 0x13B2B, offset: 0x13B2B, size: 0x8, addend: 0x0, symName: __ZNSt3__125__debug_db_invalidate_allB7v160006INS_6vectorI5TokenNS_9allocatorIS2_EEEEEEvPT_, symObjAddr: 0x4EC4, symBinAddr: 0x100007CB8, symSize: 0x10 }
  - { offsetInCU: 0x13B5C, offset: 0x13B5C, size: 0x8, addend: 0x0, symName: __ZNSt3__122__make_exception_guardB7v160006INS_29_AllocatorDestroyRangeReverseINS_9allocatorI5TokenEENS_16reverse_iteratorIPS3_EEEEEENS_28__exception_guard_exceptionsIT_EESA_, symObjAddr: 0x4F1C, symBinAddr: 0x100007D10, symSize: 0x4C }
  - { offsetInCU: 0x13B92, offset: 0x13B92, size: 0x8, addend: 0x0, symName: __ZNSt3__1neB7v160006IP5TokenS2_EEbRKNS_16reverse_iteratorIT_EERKNS3_IT0_EE, symObjAddr: 0x4FAC, symBinAddr: 0x100007DA0, symSize: 0x48 }
  - { offsetInCU: 0x13BDE, offset: 0x13BDE, size: 0x8, addend: 0x0, symName: __ZNSt3__112__to_addressB7v160006INS_16reverse_iteratorIP5TokenEEvEENS_5decayIDTclsr19__to_address_helperIT_EE6__callclsr3stdE7declvalIRKS6_EEEEE4typeES8_, symObjAddr: 0x5028, symBinAddr: 0x100007E1C, symSize: 0x24 }
  - { offsetInCU: 0x13C3D, offset: 0x13C3D, size: 0x8, addend: 0x0, symName: __ZNSt3__119__allocator_destroyB7v160006INS_9allocatorI5TokenEENS_16reverse_iteratorINS4_IPS2_EEEES7_EEvRT_T0_T1_, symObjAddr: 0x54C0, symBinAddr: 0x1000082B4, symSize: 0x70 }
  - { offsetInCU: 0x13CA2, offset: 0x13CA2, size: 0x8, addend: 0x0, symName: __ZNSt3__1neB7v160006INS_16reverse_iteratorIP5TokenEES4_EEbRKNS1_IT_EERKNS1_IT0_EE, symObjAddr: 0x556C, symBinAddr: 0x100008360, symSize: 0x60 }
  - { offsetInCU: 0x13CEE, offset: 0x13CEE, size: 0x8, addend: 0x0, symName: __ZNSt3__112__to_addressB7v160006INS_16reverse_iteratorINS1_IP5TokenEEEEvEENS_5decayIDTclsr19__to_address_helperIT_EE6__callclsr3stdE7declvalIRKS7_EEEEE4typeES9_, symObjAddr: 0x55F8, symBinAddr: 0x1000083EC, symSize: 0x24 }
  - { offsetInCU: 0x13D4D, offset: 0x13D4D, size: 0x8, addend: 0x0, symName: __ZNSt3__119__libcpp_deallocateB7v160006EPvmm, symObjAddr: 0x5A1C, symBinAddr: 0x100008810, symSize: 0x60 }
  - { offsetInCU: 0x13DB2, offset: 0x13DB2, size: 0x8, addend: 0x0, symName: __ZNSt3__127__do_deallocate_handle_sizeB7v160006IJSt11align_val_tEEEvPvmDpT_, symObjAddr: 0x5A7C, symBinAddr: 0x100008870, symSize: 0x30 }
  - { offsetInCU: 0x13E05, offset: 0x13E05, size: 0x8, addend: 0x0, symName: __ZNSt3__127__do_deallocate_handle_sizeB7v160006IJEEEvPvmDpT_, symObjAddr: 0x5AAC, symBinAddr: 0x1000088A0, symSize: 0x28 }
  - { offsetInCU: 0x13E43, offset: 0x13E43, size: 0x8, addend: 0x0, symName: __ZNSt3__124__libcpp_operator_deleteB7v160006IJPvSt11align_val_tEEEvDpT_, symObjAddr: 0x5AD4, symBinAddr: 0x1000088C8, symSize: 0x2C }
  - { offsetInCU: 0x13E8C, offset: 0x13E8C, size: 0x8, addend: 0x0, symName: __ZNSt3__124__libcpp_operator_deleteB7v160006IJPvEEEvDpT_, symObjAddr: 0x5B00, symBinAddr: 0x1000088F4, symSize: 0x24 }
  - { offsetInCU: 0x14156, offset: 0x14156, size: 0x8, addend: 0x0, symName: __ZNSt3__120__libcpp_unreachableB7v160006Ev, symObjAddr: 0x5EB8, symBinAddr: 0x100008CAC, symSize: 0x4 }
  - { offsetInCU: 0x146FA, offset: 0x146FA, size: 0x8, addend: 0x0, symName: __ZNSt3__1eqB7v160006ERKNS_20__map_const_iteratorINS_21__tree_const_iteratorINS_12__value_typeINS_12basic_stringIcNS_11char_traitsIcEENS_9allocatorIcEEEE9TokenTypeEEPNS_11__tree_nodeISA_PvEElEEEESI_, symObjAddr: 0x6E98, symBinAddr: 0x100009C8C, symSize: 0x30 }
  - { offsetInCU: 0x14737, offset: 0x14737, size: 0x8, addend: 0x0, symName: __ZNSt3__1neB7v160006ERKNS_21__tree_const_iteratorINS_12__value_typeINS_12basic_stringIcNS_11char_traitsIcEENS_9allocatorIcEEEE9TokenTypeEEPNS_11__tree_nodeIS9_PvEElEESG_, symObjAddr: 0x7150, symBinAddr: 0x100009F44, symSize: 0x34 }
  - { offsetInCU: 0x14774, offset: 0x14774, size: 0x8, addend: 0x0, symName: __ZNSt3__1ltB7v160006IcNS_11char_traitsIcEENS_9allocatorIcEEEEbRKNS_12basic_stringIT_T0_T1_EESB_, symObjAddr: 0x732C, symBinAddr: 0x10000A120, symSize: 0x38 }
  - { offsetInCU: 0x147F0, offset: 0x147F0, size: 0x8, addend: 0x0, symName: __ZNSt3__118__constexpr_memcmpB7v160006IcEEiPKT_S3_m, symObjAddr: 0x7570, symBinAddr: 0x10000A364, symSize: 0x34 }
  - { offsetInCU: 0x14841, offset: 0x14841, size: 0x8, addend: 0x0, symName: __ZNSt3__112__to_addressB7v160006IKcEEPT_S3_, symObjAddr: 0x75A4, symBinAddr: 0x10000A398, symSize: 0x14 }
  - { offsetInCU: 0x148A9, offset: 0x148A9, size: 0x8, addend: 0x0, symName: __ZNSt3__17launderB7v160006IKNS_4pairIKNS_12basic_stringIcNS_11char_traitsIcEENS_9allocatorIcEEEE9TokenTypeEEEEPT_SD_, symObjAddr: 0x7670, symBinAddr: 0x10000A464, symSize: 0x24 }
  - { offsetInCU: 0x148E0, offset: 0x148E0, size: 0x8, addend: 0x0, symName: __ZNSt3__19__launderB7v160006IKNS_4pairIKNS_12basic_stringIcNS_11char_traitsIcEENS_9allocatorIcEEEE9TokenTypeEEEEPT_SD_, symObjAddr: 0x7694, symBinAddr: 0x10000A488, symSize: 0x14 }
  - { offsetInCU: 0x1494A, offset: 0x1494A, size: 0x8, addend: 0x0, symName: __ZNSt3__1eqB7v160006ERKNS_21__tree_const_iteratorINS_12__value_typeINS_12basic_stringIcNS_11char_traitsIcEENS_9allocatorIcEEEE9TokenTypeEEPNS_11__tree_nodeIS9_PvEElEESG_, symObjAddr: 0x7714, symBinAddr: 0x10000A508, symSize: 0x30 }
  - { offsetInCU: 0x149ED, offset: 0x149ED, size: 0x8, addend: 0x0, symName: __ZNSt3__122__make_exception_guardB7v160006INS_6vectorI5TokenNS_9allocatorIS2_EEE16__destroy_vectorEEENS_28__exception_guard_exceptionsIT_EES8_, symObjAddr: 0x7C48, symBinAddr: 0x10000AA3C, symSize: 0x40 }
  - { offsetInCU: 0x14A22, offset: 0x14A22, size: 0x8, addend: 0x0, symName: __ZNSt3__130__uninitialized_allocator_copyB7v160006INS_9allocatorI5TokenEEPS2_S4_S4_EET2_RT_T0_T1_S5_, symObjAddr: 0x7F18, symBinAddr: 0x10000AD0C, symSize: 0xF4 }
  - { offsetInCU: 0x14AC0, offset: 0x14AC0, size: 0x8, addend: 0x0, symName: __ZNSt3__122__make_exception_guardB7v160006INS_29_AllocatorDestroyRangeReverseINS_9allocatorI5TokenEEPS3_EEEENS_28__exception_guard_exceptionsIT_EES8_, symObjAddr: 0x800C, symBinAddr: 0x10000AE00, symSize: 0x4C }
  - { offsetInCU: 0x14AF6, offset: 0x14AF6, size: 0x8, addend: 0x0, symName: __ZNSt3__119__allocator_destroyB7v160006INS_9allocatorI5TokenEENS_16reverse_iteratorIPS2_EES6_EEvRT_T0_T1_, symObjAddr: 0x829C, symBinAddr: 0x10000B090, symSize: 0x70 }
  - { offsetInCU: 0x14B59, offset: 0x14B59, size: 0x8, addend: 0x0, symName: __ZNSt3__118__debug_db_erase_cB7v160006INS_6vectorI5TokenNS_9allocatorIS2_EEEEEEvPT_, symObjAddr: 0x83F8, symBinAddr: 0x10000B1EC, symSize: 0x10 }
  - { offsetInCU: 0x14B8A, offset: 0x14B8A, size: 0x8, addend: 0x0, symName: __ZNSt3__1eqB7v160006IP5TokenEEbRKNS_11__wrap_iterIT_EES7_, symObjAddr: 0x84BC, symBinAddr: 0x10000B2B0, symSize: 0x48 }
  - { offsetInCU: 0x14BCD, offset: 0x14BCD, size: 0x8, addend: 0x0, symName: __ZNSt3__18any_castB7v160006INS_12basic_stringIcNS_11char_traitsIcEENS_9allocatorIcEEEEEET_RKNS_3anyE, symObjAddr: 0x851C, symBinAddr: 0x10000B310, symSize: 0x54 }
  - { offsetInCU: 0x14C13, offset: 0x14C13, size: 0x8, addend: 0x0, symName: __ZNSt3__18any_castB7v160006IdEET_RKNS_3anyE, symObjAddr: 0x85A4, symBinAddr: 0x10000B398, symSize: 0x48 }
  - { offsetInCU: 0x14C59, offset: 0x14C59, size: 0x8, addend: 0x0, symName: __ZNSt3__1plB7v160006IcNS_11char_traitsIcEENS_9allocatorIcEEEENS_12basic_stringIT_T0_T1_EEOS9_RKS9_, symObjAddr: 0x8618, symBinAddr: 0x10000B40C, symSize: 0x40 }
  - { offsetInCU: 0x14CB1, offset: 0x14CB1, size: 0x8, addend: 0x0, symName: __ZNSt3__1plB7v160006IcNS_11char_traitsIcEENS_9allocatorIcEEEENS_12basic_stringIT_T0_T1_EEOS9_PKS6_, symObjAddr: 0x8658, symBinAddr: 0x10000B44C, symSize: 0x40 }
  - { offsetInCU: 0x14D09, offset: 0x14D09, size: 0x8, addend: 0x0, symName: __ZNSt3__18any_castB7v160006IKNS_12basic_stringIcNS_11char_traitsIcEENS_9allocatorIcEEEEEEu13__add_pointerINS_9add_constIT_E4typeEEPKNS_3anyE, symObjAddr: 0x8698, symBinAddr: 0x10000B48C, symSize: 0x24 }
  - { offsetInCU: 0x14D3F, offset: 0x14D3F, size: 0x8, addend: 0x0, symName: __ZNSt3__120__throw_bad_any_castB7v160006Ev, symObjAddr: 0x86BC, symBinAddr: 0x10000B4B0, symSize: 0x38 }
  - { offsetInCU: 0x14D58, offset: 0x14D58, size: 0x8, addend: 0x0, symName: __ZNSt3__18any_castB7v160006IKNS_12basic_stringIcNS_11char_traitsIcEENS_9allocatorIcEEEEEEu13__add_pointerIT_EPNS_3anyE, symObjAddr: 0x86F4, symBinAddr: 0x10000B4E8, symSize: 0xA8 }
  - { offsetInCU: 0x14DAB, offset: 0x14DAB, size: 0x8, addend: 0x0, symName: __ZNSt3__122__pointer_or_func_castB7v160006IPKNS_12basic_stringIcNS_11char_traitsIcEENS_9allocatorIcEEEEEET_PvNS_17integral_constantIbLb0EEE, symObjAddr: 0x87A8, symBinAddr: 0x10000B59C, symSize: 0x14 }
  - { offsetInCU: 0x14E20, offset: 0x14E20, size: 0x8, addend: 0x0, symName: __ZNSt3__18any_castB7v160006IKdEEu13__add_pointerINS_9add_constIT_E4typeEEPKNS_3anyE, symObjAddr: 0x8BB0, symBinAddr: 0x10000B9A4, symSize: 0x24 }
  - { offsetInCU: 0x14E56, offset: 0x14E56, size: 0x8, addend: 0x0, symName: __ZNSt3__18any_castB7v160006IKdEEu13__add_pointerIT_EPNS_3anyE, symObjAddr: 0x8BD4, symBinAddr: 0x10000B9C8, symSize: 0xA8 }
  - { offsetInCU: 0x14EA9, offset: 0x14EA9, size: 0x8, addend: 0x0, symName: __ZNSt3__122__pointer_or_func_castB7v160006IPKdEET_PvNS_17integral_constantIbLb0EEE, symObjAddr: 0x8C88, symBinAddr: 0x10000BA7C, symSize: 0x14 }
  - { offsetInCU: 0x14EEB, offset: 0x14EEB, size: 0x8, addend: 0x0, symName: __ZNSt3__112__to_addressB7v160006IcEEPT_S2_, symObjAddr: 0x8D64, symBinAddr: 0x10000BB58, symSize: 0x14 }
  - { offsetInCU: 0x14F44, offset: 0x14F44, size: 0x8, addend: 0x0, symName: __ZNSt3__14nextB7v160006INS_21__tree_const_iteratorINS_12__value_typeINS_12basic_stringIcNS_11char_traitsIcEENS_9allocatorIcEEEE9TokenTypeEEPNS_11__tree_nodeISA_PvEElEEEENS_9enable_ifIXsr25__is_cpp17_input_iteratorIT_EE5valueESH_E4typeESH_NS_15iterator_traitsISH_E15difference_typeE, symObjAddr: 0x9FB4, symBinAddr: 0x10000CDA8, symSize: 0x50 }
  - { offsetInCU: 0x14F87, offset: 0x14F87, size: 0x8, addend: 0x0, symName: __ZNSt3__116__tree_prev_iterB7v160006IPNS_16__tree_node_baseIPvEEPNS_15__tree_end_nodeIS4_EEEET_T0_, symObjAddr: 0xA0B0, symBinAddr: 0x10000CEA4, symSize: 0xA4 }
  - { offsetInCU: 0x14FD3, offset: 0x14FD3, size: 0x8, addend: 0x0, symName: __ZNSt3__110__tree_maxB7v160006IPNS_16__tree_node_baseIPvEEEET_S5_, symObjAddr: 0xA154, symBinAddr: 0x10000CF48, symSize: 0x40 }
  - { offsetInCU: 0x15008, offset: 0x15008, size: 0x8, addend: 0x0, symName: __ZNSt3__120__tree_is_left_childB7v160006IPNS_16__tree_node_baseIPvEEEEbT_, symObjAddr: 0xA194, symBinAddr: 0x10000CF88, symSize: 0x2C }
  - { offsetInCU: 0x1503D, offset: 0x1503D, size: 0x8, addend: 0x0, symName: __ZNSt3__121__convert_to_integralB7v160006El, symObjAddr: 0xA24C, symBinAddr: 0x10000D040, symSize: 0x14 }
  - { offsetInCU: 0x15069, offset: 0x15069, size: 0x8, addend: 0x0, symName: __ZNSt3__19__advanceB7v160006INS_21__tree_const_iteratorINS_12__value_typeINS_12basic_stringIcNS_11char_traitsIcEENS_9allocatorIcEEEE9TokenTypeEEPNS_11__tree_nodeISA_PvEElEEEEvRT_NS_15iterator_traitsISG_E15difference_typeENS_26bidirectional_iterator_tagE, symObjAddr: 0xA260, symBinAddr: 0x10000D054, symSize: 0xA4 }
  - { offsetInCU: 0x150B3, offset: 0x150B3, size: 0x8, addend: 0x0, symName: __ZNSt3__116__tree_next_iterB7v160006IPNS_15__tree_end_nodeIPNS_16__tree_node_baseIPvEEEES5_EET_T0_, symObjAddr: 0xA33C, symBinAddr: 0x10000D130, symSize: 0x80 }
  - { offsetInCU: 0x150F1, offset: 0x150F1, size: 0x8, addend: 0x0, symName: __ZNSt3__110__tree_minB7v160006IPNS_16__tree_node_baseIPvEEEET_S5_, symObjAddr: 0xA3BC, symBinAddr: 0x10000D1B0, symSize: 0x40 }
  - { offsetInCU: 0x15144, offset: 0x15144, size: 0x8, addend: 0x0, symName: __ZNSt3__17launderB7v160006INS_4pairIKNS_12basic_stringIcNS_11char_traitsIcEENS_9allocatorIcEEEE9TokenTypeEEEEPT_SC_, symObjAddr: 0xA854, symBinAddr: 0x10000D648, symSize: 0x24 }
  - { offsetInCU: 0x1517B, offset: 0x1517B, size: 0x8, addend: 0x0, symName: __ZNSt3__19__launderB7v160006INS_4pairIKNS_12basic_stringIcNS_11char_traitsIcEENS_9allocatorIcEEEE9TokenTypeEEEEPT_SC_, symObjAddr: 0xA878, symBinAddr: 0x10000D66C, symSize: 0x14 }
  - { offsetInCU: 0x151B2, offset: 0x151B2, size: 0x8, addend: 0x0, symName: __ZNSt3__127__tree_balance_after_insertB7v160006IPNS_16__tree_node_baseIPvEEEEvT_S5_, symObjAddr: 0xA900, symBinAddr: 0x10000D6F4, symSize: 0x27C }
  - { offsetInCU: 0x1522E, offset: 0x1522E, size: 0x8, addend: 0x0, symName: __ZNSt3__118__tree_left_rotateB7v160006IPNS_16__tree_node_baseIPvEEEEvT_, symObjAddr: 0xABA4, symBinAddr: 0x10000D998, symSize: 0xD8 }
  - { offsetInCU: 0x15270, offset: 0x15270, size: 0x8, addend: 0x0, symName: __ZNSt3__119__tree_right_rotateB7v160006IPNS_16__tree_node_baseIPvEEEEvT_, symObjAddr: 0xAC7C, symBinAddr: 0x10000DA70, symSize: 0xCC }
  - { offsetInCU: 0x152B2, offset: 0x152B2, size: 0x8, addend: 0x0, symName: __ZNSt3__17getlineB7v160006IcNS_11char_traitsIcEENS_9allocatorIcEEEERNS_13basic_istreamIT_T0_EES9_RNS_12basic_stringIS6_S7_T1_EES6_, symObjAddr: 0xB1CC, symBinAddr: 0x10000DFC0, symSize: 0x238 }
  - { offsetInCU: 0x15370, offset: 0x15370, size: 0x8, addend: 0x0, symName: __ZNSt3__125__debug_db_invalidate_allB7v160006INS_12basic_stringIcNS_11char_traitsIcEENS_9allocatorIcEEEEEEvPT_, symObjAddr: 0xB694, symBinAddr: 0x10000E488, symSize: 0x10 }
  - { offsetInCU: 0x15D59, offset: 0x15D59, size: 0x8, addend: 0x0, symName: __ZSt28__throw_bad_array_new_lengthB7v160006v, symObjAddr: 0x4A0C, symBinAddr: 0x100007800, symSize: 0x34 }
  - { offsetInCU: 0x16047, offset: 0x16047, size: 0x8, addend: 0x0, symName: __ZN7Scanner8keywordsE, symObjAddr: 0x79628, symBinAddr: 0x1000143B8, symSize: 0x0 }
  - { offsetInCU: 0x16BD1, offset: 0x16BD1, size: 0x8, addend: 0x0, symName: __ZNSt3__19__any_imp17__unique_typeinfoIDnE4__idE, symObjAddr: 0xC340, symBinAddr: 0x10000F7C4, symSize: 0x0 }
  - { offsetInCU: 0x16BE5, offset: 0x16BE5, size: 0x8, addend: 0x0, symName: __ZNSt3__19__any_imp17__unique_typeinfoINS_12basic_stringIcNS_11char_traitsIcEENS_9allocatorIcEEEEE4__idE, symObjAddr: 0xC384, symBinAddr: 0x10000F808, symSize: 0x0 }
  - { offsetInCU: 0x16BF9, offset: 0x16BF9, size: 0x8, addend: 0x0, symName: __ZNSt3__19__any_imp17__unique_typeinfoIdE4__idE, symObjAddr: 0xC388, symBinAddr: 0x10000F80C, symSize: 0x0 }
  - { offsetInCU: 0x16C1A, offset: 0x16C1A, size: 0x8, addend: 0x0, symName: _hadError, symObjAddr: 0xC33C, symBinAddr: 0x100014000, symSize: 0x0 }
  - { offsetInCU: 0x173F8, offset: 0x173F8, size: 0x8, addend: 0x0, symName: __ZNSt3__16vectorI5TokenNS_9allocatorIS1_EEE26__swap_out_circular_bufferERNS_14__split_bufferIS1_RS3_EE, symObjAddr: 0x4318, symBinAddr: 0x10000710C, symSize: 0x118 }
  - { offsetInCU: 0x196A0, offset: 0x196A0, size: 0x8, addend: 0x0, symName: __Z5erroriNSt3__117basic_string_viewIcNS_11char_traitsIcEEEE, symObjAddr: 0x0, symBinAddr: 0x100002DF4, symSize: 0x5C }
  - { offsetInCU: 0x196D7, offset: 0x196D7, size: 0x8, addend: 0x0, symName: __ZL6reportiNSt3__117basic_string_viewIcNS_11char_traitsIcEEEES3_, symObjAddr: 0x5C, symBinAddr: 0x100002E50, symSize: 0xA4 }
  - { offsetInCU: 0x1971C, offset: 0x1971C, size: 0x8, addend: 0x0, symName: __ZNSt3__117basic_string_viewIcNS_11char_traitsIcEEEC1B7v160006EPKc, symObjAddr: 0x100, symBinAddr: 0x100002EF4, symSize: 0x34 }
  - { offsetInCU: 0x19755, offset: 0x19755, size: 0x8, addend: 0x0, symName: __ZNSt3__112basic_stringIcNS_11char_traitsIcEENS_9allocatorIcEEEC1B7v160006IDnEEPKc, symObjAddr: 0x7DC, symBinAddr: 0x1000035D0, symSize: 0x34 }
  - { offsetInCU: 0x19792, offset: 0x19792, size: 0x8, addend: 0x0, symName: __Z8readFileNSt3__117basic_string_viewIcNS_11char_traitsIcEEEE, symObjAddr: 0x810, symBinAddr: 0x100003604, symSize: 0x1F4 }
  - { offsetInCU: 0x197DF, offset: 0x197DF, size: 0x8, addend: 0x0, symName: __ZNKSt3__117basic_string_viewIcNS_11char_traitsIcEEE4dataB7v160006Ev, symObjAddr: 0xA04, symBinAddr: 0x1000037F8, symSize: 0x18 }
  - { offsetInCU: 0x1992B, offset: 0x1992B, size: 0x8, addend: 0x0, symName: __ZNSt3__114basic_ifstreamIcNS_11char_traitsIcEEEC1EPKcj, symObjAddr: 0xA1C, symBinAddr: 0x100003810, symSize: 0x16C }
  - { offsetInCU: 0x19975, offset: 0x19975, size: 0x8, addend: 0x0, symName: __ZNKSt3__19basic_iosIcNS_11char_traitsIcEEEntB7v160006Ev, symObjAddr: 0xB88, symBinAddr: 0x10000397C, symSize: 0x28 }
  - { offsetInCU: 0x1999B, offset: 0x1999B, size: 0x8, addend: 0x0, symName: __ZNSt3__112basic_stringIcNS_11char_traitsIcEENS_9allocatorIcEEEC1B7v160006Ev, symObjAddr: 0xBF8, symBinAddr: 0x1000039EC, symSize: 0x2C }
  - { offsetInCU: 0x199C5, offset: 0x199C5, size: 0x8, addend: 0x0, symName: __ZNSt3__112basic_stringIcNS_11char_traitsIcEENS_9allocatorIcEEE6resizeB7v160006Em, symObjAddr: 0xC24, symBinAddr: 0x100003A18, symSize: 0x30 }
  - { offsetInCU: 0x199FA, offset: 0x199FA, size: 0x8, addend: 0x0, symName: __ZNKSt3__14fposI11__mbstate_tEcvxB7v160006Ev, symObjAddr: 0xC54, symBinAddr: 0x100003A48, symSize: 0x18 }
  - { offsetInCU: 0x19A20, offset: 0x19A20, size: 0x8, addend: 0x0, symName: __ZNSt3__112basic_stringIcNS_11char_traitsIcEENS_9allocatorIcEEE4dataB7v160006Ev, symObjAddr: 0xC6C, symBinAddr: 0x100003A60, symSize: 0x28 }
  - { offsetInCU: 0x19A46, offset: 0x19A46, size: 0x8, addend: 0x0, symName: __ZNKSt3__112basic_stringIcNS_11char_traitsIcEENS_9allocatorIcEEE4sizeB7v160006Ev, symObjAddr: 0xC94, symBinAddr: 0x100003A88, symSize: 0x54 }
  - { offsetInCU: 0x19A6C, offset: 0x19A6C, size: 0x8, addend: 0x0, symName: __ZNSt3__114basic_ifstreamIcNS_11char_traitsIcEEED1Ev, symObjAddr: 0xCE8, symBinAddr: 0x100003ADC, symSize: 0x40 }
  - { offsetInCU: 0x19AB6, offset: 0x19AB6, size: 0x8, addend: 0x0, symName: __ZNSt3__14pairIKNS_12basic_stringIcNS_11char_traitsIcEENS_9allocatorIcEEEE9TokenTypeEC1B7v160006IRA4_KcS8_LPv0EEEOT_OT0_, symObjAddr: 0xD28, symBinAddr: 0x100003B1C, symSize: 0x3C }
  - { offsetInCU: 0x19B2B, offset: 0x19B2B, size: 0x8, addend: 0x0, symName: __ZNSt3__14pairIKNS_12basic_stringIcNS_11char_traitsIcEENS_9allocatorIcEEEE9TokenTypeEC1B7v160006IRA6_KcS8_LPv0EEEOT_OT0_, symObjAddr: 0xD64, symBinAddr: 0x100003B58, symSize: 0x3C }
  - { offsetInCU: 0x19BA0, offset: 0x19BA0, size: 0x8, addend: 0x0, symName: __ZNSt3__14pairIKNS_12basic_stringIcNS_11char_traitsIcEENS_9allocatorIcEEEE9TokenTypeEC1B7v160006IRA5_KcS8_LPv0EEEOT_OT0_, symObjAddr: 0xDA0, symBinAddr: 0x100003B94, symSize: 0x3C }
  - { offsetInCU: 0x19C15, offset: 0x19C15, size: 0x8, addend: 0x0, symName: __ZNSt3__14pairIKNS_12basic_stringIcNS_11char_traitsIcEENS_9allocatorIcEEEE9TokenTypeEC1B7v160006IRA3_KcS8_LPv0EEEOT_OT0_, symObjAddr: 0xDDC, symBinAddr: 0x100003BD0, symSize: 0x3C }
  - { offsetInCU: 0x19C8A, offset: 0x19C8A, size: 0x8, addend: 0x0, symName: __ZNSt3__14pairIKNS_12basic_stringIcNS_11char_traitsIcEENS_9allocatorIcEEEE9TokenTypeEC1B7v160006IRA7_KcS8_LPv0EEEOT_OT0_, symObjAddr: 0xE18, symBinAddr: 0x100003C0C, symSize: 0x3C }
  - { offsetInCU: 0x19CE8, offset: 0x19CE8, size: 0x8, addend: 0x0, symName: __ZNSt3__14pairIKNS_12basic_stringIcNS_11char_traitsIcEENS_9allocatorIcEEEE9TokenTypeED1Ev, symObjAddr: 0xE54, symBinAddr: 0x100003C48, symSize: 0x2C }
  - { offsetInCU: 0x19D14, offset: 0x19D14, size: 0x8, addend: 0x0, symName: __ZNSt3__13mapINS_12basic_stringIcNS_11char_traitsIcEENS_9allocatorIcEEEE9TokenTypeNS_4lessIS6_EENS4_INS_4pairIKS6_S7_EEEEEC1B7v160006ESt16initializer_listISC_ERKS9_, symObjAddr: 0xE80, symBinAddr: 0x100003C74, symSize: 0x44 }
  - { offsetInCU: 0x19D5C, offset: 0x19D5C, size: 0x8, addend: 0x0, symName: __ZNSt3__13mapINS_12basic_stringIcNS_11char_traitsIcEENS_9allocatorIcEEEE9TokenTypeNS_4lessIS6_EENS4_INS_4pairIKS6_S7_EEEEED1B7v160006Ev, symObjAddr: 0xEC4, symBinAddr: 0x100003CB8, symSize: 0x2C }
  - { offsetInCU: 0x19D85, offset: 0x19D85, size: 0x8, addend: 0x0, symName: __Z3runNSt3__117basic_string_viewIcNS_11char_traitsIcEEEE, symObjAddr: 0xEF0, symBinAddr: 0x100003CE4, symSize: 0x14C }
  - { offsetInCU: 0x19E0E, offset: 0x19E0E, size: 0x8, addend: 0x0, symName: __ZN7ScannerC1ENSt3__117basic_string_viewIcNS0_11char_traitsIcEEEE, symObjAddr: 0x103C, symBinAddr: 0x100003E30, symSize: 0x3C }
  - { offsetInCU: 0x19E46, offset: 0x19E46, size: 0x8, addend: 0x0, symName: __ZN7Scanner10scanTokensEv, symObjAddr: 0x1078, symBinAddr: 0x100003E6C, symSize: 0x90 }
  - { offsetInCU: 0x19E6C, offset: 0x19E6C, size: 0x8, addend: 0x0, symName: __ZNSt3__16vectorI5TokenNS_9allocatorIS1_EEE5beginB7v160006Ev, symObjAddr: 0x1108, symBinAddr: 0x100003EFC, symSize: 0x30 }
  - { offsetInCU: 0x19E94, offset: 0x19E94, size: 0x8, addend: 0x0, symName: __ZNSt3__16vectorI5TokenNS_9allocatorIS1_EEE3endB7v160006Ev, symObjAddr: 0x1138, symBinAddr: 0x100003F2C, symSize: 0x30 }
  - { offsetInCU: 0x19EBC, offset: 0x19EBC, size: 0x8, addend: 0x0, symName: __ZNKSt3__111__wrap_iterIP5TokenEdeB7v160006Ev, symObjAddr: 0x119C, symBinAddr: 0x100003F90, symSize: 0x18 }
  - { offsetInCU: 0x19EE2, offset: 0x19EE2, size: 0x8, addend: 0x0, symName: __ZNK5Token8toStringEv, symObjAddr: 0x1200, symBinAddr: 0x100003FF4, symSize: 0x26C }
  - { offsetInCU: 0x19F16, offset: 0x19F16, size: 0x8, addend: 0x0, symName: __ZNSt3__111__wrap_iterIP5TokenEppB7v160006Ev, symObjAddr: 0x14B0, symBinAddr: 0x1000042A4, symSize: 0x20 }
  - { offsetInCU: 0x19F3C, offset: 0x19F3C, size: 0x8, addend: 0x0, symName: __ZNSt3__16vectorI5TokenNS_9allocatorIS1_EEED1B7v160006Ev, symObjAddr: 0x14D0, symBinAddr: 0x1000042C4, symSize: 0x2C }
  - { offsetInCU: 0x19F66, offset: 0x19F66, size: 0x8, addend: 0x0, symName: __ZN7ScannerD1Ev, symObjAddr: 0x14FC, symBinAddr: 0x1000042F0, symSize: 0x2C }
  - { offsetInCU: 0x19F91, offset: 0x19F91, size: 0x8, addend: 0x0, symName: __Z7runFileNSt3__117basic_string_viewIcNS_11char_traitsIcEEEE, symObjAddr: 0x1528, symBinAddr: 0x10000431C, symSize: 0xA8 }
  - { offsetInCU: 0x19FC8, offset: 0x19FC8, size: 0x8, addend: 0x0, symName: __ZNKSt3__112basic_stringIcNS_11char_traitsIcEENS_9allocatorIcEEEcvNS_17basic_string_viewIcS2_EEB7v160006Ev, symObjAddr: 0x15D0, symBinAddr: 0x1000043C4, symSize: 0x50 }
  - { offsetInCU: 0x19FED, offset: 0x19FED, size: 0x8, addend: 0x0, symName: __Z9runPromptv, symObjAddr: 0x1620, symBinAddr: 0x100004414, symSize: 0x100 }
  - { offsetInCU: 0x1A01E, offset: 0x1A01E, size: 0x8, addend: 0x0, symName: _main, symObjAddr: 0x177C, symBinAddr: 0x100004570, symSize: 0x98 }
  - { offsetInCU: 0x1A058, offset: 0x1A058, size: 0x8, addend: 0x0, symName: __ZNKSt3__117basic_string_viewIcNS_11char_traitsIcEEE4sizeB7v160006Ev, symObjAddr: 0x1A5C, symBinAddr: 0x100004850, symSize: 0x18 }
  - { offsetInCU: 0x1A09B, offset: 0x1A09B, size: 0x8, addend: 0x0, symName: __ZNKSt3__113basic_ostreamIcNS_11char_traitsIcEEE6sentrycvbB7v160006Ev, symObjAddr: 0x1A74, symBinAddr: 0x100004868, symSize: 0x1C }
  - { offsetInCU: 0x1A0C1, offset: 0x1A0C1, size: 0x8, addend: 0x0, symName: __ZNSt3__119ostreambuf_iteratorIcNS_11char_traitsIcEEEC1B7v160006ERNS_13basic_ostreamIcS2_EE, symObjAddr: 0x1CD0, symBinAddr: 0x100004AC4, symSize: 0x34 }
  - { offsetInCU: 0x1A0F9, offset: 0x1A0F9, size: 0x8, addend: 0x0, symName: __ZNKSt3__18ios_base5flagsB7v160006Ev, symObjAddr: 0x1D04, symBinAddr: 0x100004AF8, symSize: 0x18 }
  - { offsetInCU: 0x1A121, offset: 0x1A121, size: 0x8, addend: 0x0, symName: __ZNKSt3__19basic_iosIcNS_11char_traitsIcEEE4fillB7v160006Ev, symObjAddr: 0x1D1C, symBinAddr: 0x100004B10, symSize: 0x64 }
  - { offsetInCU: 0x1A149, offset: 0x1A149, size: 0x8, addend: 0x0, symName: __ZNKSt3__119ostreambuf_iteratorIcNS_11char_traitsIcEEE6failedB7v160006Ev, symObjAddr: 0x1D80, symBinAddr: 0x100004B74, symSize: 0x24 }
  - { offsetInCU: 0x1A16F, offset: 0x1A16F, size: 0x8, addend: 0x0, symName: __ZNSt3__19basic_iosIcNS_11char_traitsIcEEE8setstateB7v160006Ej, symObjAddr: 0x1DA4, symBinAddr: 0x100004B98, symSize: 0x2C }
  - { offsetInCU: 0x1A1A4, offset: 0x1A1A4, size: 0x8, addend: 0x0, symName: __ZNKSt3__18ios_base5widthB7v160006Ev, symObjAddr: 0x1DDC, symBinAddr: 0x100004BD0, symSize: 0x18 }
  - { offsetInCU: 0x1A1CC, offset: 0x1A1CC, size: 0x8, addend: 0x0, symName: __ZNSt3__115basic_streambufIcNS_11char_traitsIcEEE5sputnB7v160006EPKcl, symObjAddr: 0x1DF4, symBinAddr: 0x100004BE8, symSize: 0x3C }
  - { offsetInCU: 0x1A20E, offset: 0x1A20E, size: 0x8, addend: 0x0, symName: __ZNSt3__112basic_stringIcNS_11char_traitsIcEENS_9allocatorIcEEEC1B7v160006Emc, symObjAddr: 0x1E30, symBinAddr: 0x100004C24, symSize: 0x3C }
  - { offsetInCU: 0x1A256, offset: 0x1A256, size: 0x8, addend: 0x0, symName: __ZNSt3__18ios_base5widthB7v160006El, symObjAddr: 0x1E6C, symBinAddr: 0x100004C60, symSize: 0x2C }
  - { offsetInCU: 0x1A29C, offset: 0x1A29C, size: 0x8, addend: 0x0, symName: __ZNSt3__112basic_stringIcNS_11char_traitsIcEENS_9allocatorIcEEEC2B7v160006Emc, symObjAddr: 0x1E98, symBinAddr: 0x100004C8C, symSize: 0x54 }
  - { offsetInCU: 0x1A2EA, offset: 0x1A2EA, size: 0x8, addend: 0x0, symName: __ZNSt3__117__compressed_pairINS_12basic_stringIcNS_11char_traitsIcEENS_9allocatorIcEEE5__repES5_EC1B7v160006INS_18__default_init_tagESA_EEOT_OT0_, symObjAddr: 0x1EEC, symBinAddr: 0x100004CE0, symSize: 0x3C }
  - { offsetInCU: 0x1A342, offset: 0x1A342, size: 0x8, addend: 0x0, symName: __ZNSt3__117__compressed_pairINS_12basic_stringIcNS_11char_traitsIcEENS_9allocatorIcEEE5__repES5_EC2B7v160006INS_18__default_init_tagESA_EEOT_OT0_, symObjAddr: 0x1F38, symBinAddr: 0x100004D2C, symSize: 0x3C }
  - { offsetInCU: 0x1A39A, offset: 0x1A39A, size: 0x8, addend: 0x0, symName: __ZNSt3__122__compressed_pair_elemINS_12basic_stringIcNS_11char_traitsIcEENS_9allocatorIcEEE5__repELi0ELb0EEC2B7v160006ENS_18__default_init_tagE, symObjAddr: 0x1F74, symBinAddr: 0x100004D68, symSize: 0x14 }
  - { offsetInCU: 0x1A3CF, offset: 0x1A3CF, size: 0x8, addend: 0x0, symName: __ZNSt3__122__compressed_pair_elemINS_9allocatorIcEELi1ELb1EEC2B7v160006ENS_18__default_init_tagE, symObjAddr: 0x1F88, symBinAddr: 0x100004D7C, symSize: 0x2C }
  - { offsetInCU: 0x1A404, offset: 0x1A404, size: 0x8, addend: 0x0, symName: __ZNSt3__19allocatorIcEC2B7v160006Ev, symObjAddr: 0x1FB4, symBinAddr: 0x100004DA8, symSize: 0x2C }
  - { offsetInCU: 0x1A42E, offset: 0x1A42E, size: 0x8, addend: 0x0, symName: __ZNSt3__116__non_trivial_ifILb1ENS_9allocatorIcEEEC2B7v160006Ev, symObjAddr: 0x1FE0, symBinAddr: 0x100004DD4, symSize: 0x14 }
  - { offsetInCU: 0x1A458, offset: 0x1A458, size: 0x8, addend: 0x0, symName: __ZNSt3__119ostreambuf_iteratorIcNS_11char_traitsIcEEEC2B7v160006ERNS_13basic_ostreamIcS2_EE, symObjAddr: 0x1FF4, symBinAddr: 0x100004DE8, symSize: 0x54 }
  - { offsetInCU: 0x1A490, offset: 0x1A490, size: 0x8, addend: 0x0, symName: __ZNKSt3__19basic_iosIcNS_11char_traitsIcEEE5rdbufB7v160006Ev, symObjAddr: 0x2048, symBinAddr: 0x100004E3C, symSize: 0x24 }
  - { offsetInCU: 0x1A4B8, offset: 0x1A4B8, size: 0x8, addend: 0x0, symName: __ZNKSt3__18ios_base5rdbufB7v160006Ev, symObjAddr: 0x206C, symBinAddr: 0x100004E60, symSize: 0x18 }
  - { offsetInCU: 0x1A4DE, offset: 0x1A4DE, size: 0x8, addend: 0x0, symName: __ZNSt3__111char_traitsIcE11eq_int_typeEii, symObjAddr: 0x2084, symBinAddr: 0x100004E78, symSize: 0x28 }
  - { offsetInCU: 0x1A50F, offset: 0x1A50F, size: 0x8, addend: 0x0, symName: __ZNSt3__111char_traitsIcE3eofEv, symObjAddr: 0x20AC, symBinAddr: 0x100004EA0, symSize: 0x8 }
  - { offsetInCU: 0x1A523, offset: 0x1A523, size: 0x8, addend: 0x0, symName: __ZNKSt3__19basic_iosIcNS_11char_traitsIcEEE5widenB7v160006Ec, symObjAddr: 0x20B4, symBinAddr: 0x100004EA8, symSize: 0x84 }
  - { offsetInCU: 0x1A598, offset: 0x1A598, size: 0x8, addend: 0x0, symName: __ZNKSt3__15ctypeIcE5widenB7v160006Ec, symObjAddr: 0x2164, symBinAddr: 0x100004F58, symSize: 0x38 }
  - { offsetInCU: 0x1A5CD, offset: 0x1A5CD, size: 0x8, addend: 0x0, symName: __ZNSt3__18ios_base8setstateB7v160006Ej, symObjAddr: 0x219C, symBinAddr: 0x100004F90, symSize: 0x34 }
  - { offsetInCU: 0x1A604, offset: 0x1A604, size: 0x8, addend: 0x0, symName: __ZNSt3__117basic_string_viewIcNS_11char_traitsIcEEEC2B7v160006EPKc, symObjAddr: 0x21D0, symBinAddr: 0x100004FC4, symSize: 0x44 }
  - { offsetInCU: 0x1A63D, offset: 0x1A63D, size: 0x8, addend: 0x0, symName: __ZNSt3__111char_traitsIcE6lengthEPKc, symObjAddr: 0x2238, symBinAddr: 0x10000502C, symSize: 0x34 }
  - { offsetInCU: 0x1A660, offset: 0x1A660, size: 0x8, addend: 0x0, symName: __ZNSt3__114basic_ifstreamIcNS_11char_traitsIcEEED2Ev, symObjAddr: 0x2290, symBinAddr: 0x100005084, symSize: 0x64 }
  - { offsetInCU: 0x1A69A, offset: 0x1A69A, size: 0x8, addend: 0x0, symName: __ZTv0_n24_NSt3__114basic_ifstreamIcNS_11char_traitsIcEEED1Ev, symObjAddr: 0x22F4, symBinAddr: 0x1000050E8, symSize: 0x28 }
  - { offsetInCU: 0x1A6B1, offset: 0x1A6B1, size: 0x8, addend: 0x0, symName: __ZNSt3__14pairIKNS_12basic_stringIcNS_11char_traitsIcEENS_9allocatorIcEEEE9TokenTypeEC2B7v160006IRA4_KcS8_LPv0EEEOT_OT0_, symObjAddr: 0x231C, symBinAddr: 0x100005110, symSize: 0x44 }
  - { offsetInCU: 0x1A70F, offset: 0x1A70F, size: 0x8, addend: 0x0, symName: __ZNSt3__14pairIKNS_12basic_stringIcNS_11char_traitsIcEENS_9allocatorIcEEEE9TokenTypeEC2B7v160006IRA6_KcS8_LPv0EEEOT_OT0_, symObjAddr: 0x2360, symBinAddr: 0x100005154, symSize: 0x44 }
  - { offsetInCU: 0x1A76D, offset: 0x1A76D, size: 0x8, addend: 0x0, symName: __ZNSt3__14pairIKNS_12basic_stringIcNS_11char_traitsIcEENS_9allocatorIcEEEE9TokenTypeEC2B7v160006IRA5_KcS8_LPv0EEEOT_OT0_, symObjAddr: 0x23A4, symBinAddr: 0x100005198, symSize: 0x44 }
  - { offsetInCU: 0x1A7CB, offset: 0x1A7CB, size: 0x8, addend: 0x0, symName: __ZNSt3__14pairIKNS_12basic_stringIcNS_11char_traitsIcEENS_9allocatorIcEEEE9TokenTypeEC2B7v160006IRA3_KcS8_LPv0EEEOT_OT0_, symObjAddr: 0x23E8, symBinAddr: 0x1000051DC, symSize: 0x44 }
  - { offsetInCU: 0x1A829, offset: 0x1A829, size: 0x8, addend: 0x0, symName: __ZNSt3__14pairIKNS_12basic_stringIcNS_11char_traitsIcEENS_9allocatorIcEEEE9TokenTypeEC2B7v160006IRA7_KcS8_LPv0EEEOT_OT0_, symObjAddr: 0x242C, symBinAddr: 0x100005220, symSize: 0x44 }
  - { offsetInCU: 0x1A887, offset: 0x1A887, size: 0x8, addend: 0x0, symName: __ZNSt3__14pairIKNS_12basic_stringIcNS_11char_traitsIcEENS_9allocatorIcEEEE9TokenTypeED2Ev, symObjAddr: 0x2470, symBinAddr: 0x100005264, symSize: 0x2C }
  - { offsetInCU: 0x1A8B3, offset: 0x1A8B3, size: 0x8, addend: 0x0, symName: __ZN7ScannerC2ENSt3__117basic_string_viewIcNS0_11char_traitsIcEEEE, symObjAddr: 0x249C, symBinAddr: 0x100005290, symSize: 0x50 }
  - { offsetInCU: 0x1A8EB, offset: 0x1A8EB, size: 0x8, addend: 0x0, symName: __ZNSt3__16vectorI5TokenNS_9allocatorIS1_EEEC1B7v160006Ev, symObjAddr: 0x24EC, symBinAddr: 0x1000052E0, symSize: 0x2C }
  - { offsetInCU: 0x1A915, offset: 0x1A915, size: 0x8, addend: 0x0, symName: __ZNSt3__16vectorI5TokenNS_9allocatorIS1_EEEC2B7v160006Ev, symObjAddr: 0x2518, symBinAddr: 0x10000530C, symSize: 0x58 }
  - { offsetInCU: 0x1A945, offset: 0x1A945, size: 0x8, addend: 0x0, symName: __ZNSt3__117__compressed_pairIP5TokenNS_9allocatorIS1_EEEC1B7v160006IDnNS_18__default_init_tagEEEOT_OT0_, symObjAddr: 0x2570, symBinAddr: 0x100005364, symSize: 0x3C }
  - { offsetInCU: 0x1A99D, offset: 0x1A99D, size: 0x8, addend: 0x0, symName: __ZNSt3__117__compressed_pairIP5TokenNS_9allocatorIS1_EEEC2B7v160006IDnNS_18__default_init_tagEEEOT_OT0_, symObjAddr: 0x25BC, symBinAddr: 0x1000053B0, symSize: 0x40 }
  - { offsetInCU: 0x1A9F5, offset: 0x1A9F5, size: 0x8, addend: 0x0, symName: __ZNSt3__122__compressed_pair_elemIP5TokenLi0ELb0EEC2B7v160006IDnvEEOT_, symObjAddr: 0x25FC, symBinAddr: 0x1000053F0, symSize: 0x1C }
  - { offsetInCU: 0x1AA37, offset: 0x1AA37, size: 0x8, addend: 0x0, symName: __ZNSt3__122__compressed_pair_elemINS_9allocatorI5TokenEELi1ELb1EEC2B7v160006ENS_18__default_init_tagE, symObjAddr: 0x2618, symBinAddr: 0x10000540C, symSize: 0x2C }
  - { offsetInCU: 0x1AA6C, offset: 0x1AA6C, size: 0x8, addend: 0x0, symName: __ZNSt3__19allocatorI5TokenEC2B7v160006Ev, symObjAddr: 0x2644, symBinAddr: 0x100005438, symSize: 0x2C }
  - { offsetInCU: 0x1AA96, offset: 0x1AA96, size: 0x8, addend: 0x0, symName: __ZNSt3__116__non_trivial_ifILb1ENS_9allocatorI5TokenEEEC2B7v160006Ev, symObjAddr: 0x2670, symBinAddr: 0x100005464, symSize: 0x14 }
  - { offsetInCU: 0x1AAC0, offset: 0x1AAC0, size: 0x8, addend: 0x0, symName: __ZN7Scanner7isAtEndEv, symObjAddr: 0x2684, symBinAddr: 0x100005478, symSize: 0x3C }
  - { offsetInCU: 0x1AAE6, offset: 0x1AAE6, size: 0x8, addend: 0x0, symName: __ZN7Scanner9scanTokenEv, symObjAddr: 0x26C0, symBinAddr: 0x1000054B4, symSize: 0x2DC }
  - { offsetInCU: 0x1AB31, offset: 0x1AB31, size: 0x8, addend: 0x0, symName: __ZNSt3__16vectorI5TokenNS_9allocatorIS1_EEE12emplace_backIJ9TokenTypeRA1_KcDnRiEEERS1_DpOT_, symObjAddr: 0x2B70, symBinAddr: 0x100005964, symSize: 0x98 }
  - { offsetInCU: 0x1ABAF, offset: 0x1ABAF, size: 0x8, addend: 0x0, symName: __ZNSt3__16vectorI5TokenNS_9allocatorIS1_EEEC1ERKS4_, symObjAddr: 0x2C08, symBinAddr: 0x1000059FC, symSize: 0x34 }
  - { offsetInCU: 0x1ABEA, offset: 0x1ABEA, size: 0x8, addend: 0x0, symName: __ZNKSt3__117basic_string_viewIcNS_11char_traitsIcEEE6lengthB7v160006Ev, symObjAddr: 0x2C3C, symBinAddr: 0x100005A30, symSize: 0x18 }
  - { offsetInCU: 0x1AC10, offset: 0x1AC10, size: 0x8, addend: 0x0, symName: __ZN7Scanner7advanceEv, symObjAddr: 0x2C54, symBinAddr: 0x100005A48, symSize: 0x38 }
  - { offsetInCU: 0x1AC36, offset: 0x1AC36, size: 0x8, addend: 0x0, symName: __ZN7Scanner8addTokenE9TokenType, symObjAddr: 0x2C8C, symBinAddr: 0x100005A80, symSize: 0xB4 }
  - { offsetInCU: 0x1AC6A, offset: 0x1AC6A, size: 0x8, addend: 0x0, symName: __ZN7Scanner5matchEc, symObjAddr: 0x2D40, symBinAddr: 0x100005B34, symSize: 0xAC }
  - { offsetInCU: 0x1AC9E, offset: 0x1AC9E, size: 0x8, addend: 0x0, symName: __ZN7Scanner4peekEv, symObjAddr: 0x2DEC, symBinAddr: 0x100005BE0, symSize: 0x54 }
  - { offsetInCU: 0x1ACC4, offset: 0x1ACC4, size: 0x8, addend: 0x0, symName: __ZN7Scanner6stringEv, symObjAddr: 0x2E40, symBinAddr: 0x100005C34, symSize: 0x1E4 }
  - { offsetInCU: 0x1ACF8, offset: 0x1ACF8, size: 0x8, addend: 0x0, symName: __ZN7Scanner7isDigitEc, symObjAddr: 0x3024, symBinAddr: 0x100005E18, symSize: 0x4C }
  - { offsetInCU: 0x1AD2C, offset: 0x1AD2C, size: 0x8, addend: 0x0, symName: __ZN7Scanner6numberEv, symObjAddr: 0x3070, symBinAddr: 0x100005E64, symSize: 0x1C8 }
  - { offsetInCU: 0x1AD52, offset: 0x1AD52, size: 0x8, addend: 0x0, symName: __ZN7Scanner7isAlphaEc, symObjAddr: 0x3238, symBinAddr: 0x10000602C, symSize: 0x90 }
  - { offsetInCU: 0x1AD86, offset: 0x1AD86, size: 0x8, addend: 0x0, symName: __ZN7Scanner10identifierEv, symObjAddr: 0x32C8, symBinAddr: 0x1000060BC, symSize: 0x150 }
  - { offsetInCU: 0x1ADD6, offset: 0x1ADD6, size: 0x8, addend: 0x0, symName: __ZNKSt3__117basic_string_viewIcNS_11char_traitsIcEEEixB7v160006Em, symObjAddr: 0x3418, symBinAddr: 0x10000620C, symSize: 0x24 }
  - { offsetInCU: 0x1AE0B, offset: 0x1AE0B, size: 0x8, addend: 0x0, symName: __ZN7Scanner8addTokenE9TokenTypeNSt3__13anyE, symObjAddr: 0x343C, symBinAddr: 0x100006230, symSize: 0xB8 }
  - { offsetInCU: 0x1AE5C, offset: 0x1AE5C, size: 0x8, addend: 0x0, symName: __ZNSt3__13anyC1B7v160006IDnDnvEEOT_, symObjAddr: 0x34F4, symBinAddr: 0x1000062E8, symSize: 0x34 }
  - { offsetInCU: 0x1AEA8, offset: 0x1AEA8, size: 0x8, addend: 0x0, symName: __ZNSt3__13anyD1B7v160006Ev, symObjAddr: 0x3528, symBinAddr: 0x10000631C, symSize: 0x2C }
  - { offsetInCU: 0x1AED2, offset: 0x1AED2, size: 0x8, addend: 0x0, symName: __ZNKSt3__117basic_string_viewIcNS_11char_traitsIcEEE6substrB7v160006Emm, symObjAddr: 0x3554, symBinAddr: 0x100006348, symSize: 0xAC }
  - { offsetInCU: 0x1AF16, offset: 0x1AF16, size: 0x8, addend: 0x0, symName: __ZNSt3__112basic_stringIcNS_11char_traitsIcEENS_9allocatorIcEEEC1INS_17basic_string_viewIcS2_EEvEERKT_, symObjAddr: 0x3600, symBinAddr: 0x1000063F4, symSize: 0x34 }
  - { offsetInCU: 0x1AF61, offset: 0x1AF61, size: 0x8, addend: 0x0, symName: __ZNSt3__16vectorI5TokenNS_9allocatorIS1_EEE12emplace_backIJR9TokenTypeNS_12basic_stringIcNS_11char_traitsIcEENS2_IcEEEENS_3anyERiEEERS1_DpOT_, symObjAddr: 0x3634, symBinAddr: 0x100006428, symSize: 0x98 }
  - { offsetInCU: 0x1AFDF, offset: 0x1AFDF, size: 0x8, addend: 0x0, symName: __ZNSt3__117basic_string_viewIcNS_11char_traitsIcEEEC1B7v160006Ev, symObjAddr: 0x3730, symBinAddr: 0x100006524, symSize: 0x2C }
  - { offsetInCU: 0x1B009, offset: 0x1B009, size: 0x8, addend: 0x0, symName: __ZNSt3__117basic_string_viewIcNS_11char_traitsIcEEEC1B7v160006EPKcm, symObjAddr: 0x3788, symBinAddr: 0x10000657C, symSize: 0x3C }
  - { offsetInCU: 0x1B051, offset: 0x1B051, size: 0x8, addend: 0x0, symName: __ZNSt12out_of_rangeC1B7v160006EPKc, symObjAddr: 0x37C4, symBinAddr: 0x1000065B8, symSize: 0x34 }
  - { offsetInCU: 0x1B089, offset: 0x1B089, size: 0x8, addend: 0x0, symName: __ZNSt12out_of_rangeC2B7v160006EPKc, symObjAddr: 0x37F8, symBinAddr: 0x1000065EC, symSize: 0x4C }
  - { offsetInCU: 0x1B0C1, offset: 0x1B0C1, size: 0x8, addend: 0x0, symName: __ZNSt3__117basic_string_viewIcNS_11char_traitsIcEEEC2B7v160006Ev, symObjAddr: 0x3844, symBinAddr: 0x100006638, symSize: 0x1C }
  - { offsetInCU: 0x1B0F6, offset: 0x1B0F6, size: 0x8, addend: 0x0, symName: __ZNKSt3__16__lessImmEclB7v160006ERKmS3_, symObjAddr: 0x38B4, symBinAddr: 0x1000066A8, symSize: 0x34 }
  - { offsetInCU: 0x1B138, offset: 0x1B138, size: 0x8, addend: 0x0, symName: __ZNSt3__117basic_string_viewIcNS_11char_traitsIcEEEC2B7v160006EPKcm, symObjAddr: 0x38E8, symBinAddr: 0x1000066DC, symSize: 0x50 }
  - { offsetInCU: 0x1B180, offset: 0x1B180, size: 0x8, addend: 0x0, symName: __ZNSt3__112basic_stringIcNS_11char_traitsIcEENS_9allocatorIcEEEC2INS_17basic_string_viewIcS2_EEvEERKT_, symObjAddr: 0x3938, symBinAddr: 0x10000672C, symSize: 0x78 }
  - { offsetInCU: 0x1B1E2, offset: 0x1B1E2, size: 0x8, addend: 0x0, symName: __ZNSt3__16vectorI5TokenNS_9allocatorIS1_EEE9__end_capB7v160006Ev, symObjAddr: 0x39B0, symBinAddr: 0x1000067A4, symSize: 0x28 }
  - { offsetInCU: 0x1B208, offset: 0x1B208, size: 0x8, addend: 0x0, symName: __ZNSt3__16vectorI5TokenNS_9allocatorIS1_EEE22__construct_one_at_endB7v160006IJR9TokenTypeNS_12basic_stringIcNS_11char_traitsIcEENS2_IcEEEENS_3anyERiEEEvDpOT_, symObjAddr: 0x39D8, symBinAddr: 0x1000067CC, symSize: 0xA8 }
  - { offsetInCU: 0x1B293, offset: 0x1B293, size: 0x8, addend: 0x0, symName: __ZNSt3__16vectorI5TokenNS_9allocatorIS1_EEE24__emplace_back_slow_pathIJR9TokenTypeNS_12basic_stringIcNS_11char_traitsIcEENS2_IcEEEENS_3anyERiEEEvDpOT_, symObjAddr: 0x3A80, symBinAddr: 0x100006874, symSize: 0xF0 }
  - { offsetInCU: 0x1B32F, offset: 0x1B32F, size: 0x8, addend: 0x0, symName: __ZNSt3__16vectorI5TokenNS_9allocatorIS1_EEE4backB7v160006Ev, symObjAddr: 0x3B70, symBinAddr: 0x100006964, symSize: 0x1C }
  - { offsetInCU: 0x1B355, offset: 0x1B355, size: 0x8, addend: 0x0, symName: __ZNSt3__117__compressed_pairIP5TokenNS_9allocatorIS1_EEE5firstB7v160006Ev, symObjAddr: 0x3B8C, symBinAddr: 0x100006980, symSize: 0x24 }
  - { offsetInCU: 0x1B37B, offset: 0x1B37B, size: 0x8, addend: 0x0, symName: __ZNSt3__122__compressed_pair_elemIP5TokenLi0ELb0EE5__getB7v160006Ev, symObjAddr: 0x3BB0, symBinAddr: 0x1000069A4, symSize: 0x14 }
  - { offsetInCU: 0x1B3BD, offset: 0x1B3BD, size: 0x8, addend: 0x0, symName: __ZNSt3__16vectorI5TokenNS_9allocatorIS1_EEE21_ConstructTransactionC1B7v160006ERS4_m, symObjAddr: 0x3BC4, symBinAddr: 0x1000069B8, symSize: 0x3C }
  - { offsetInCU: 0x1B405, offset: 0x1B405, size: 0x8, addend: 0x0, symName: __ZNSt3__116allocator_traitsINS_9allocatorI5TokenEEE9constructB7v160006IS2_JR9TokenTypeNS_12basic_stringIcNS_11char_traitsIcEENS1_IcEEEENS_3anyERiEvEEvRS3_PT_DpOT0_, symObjAddr: 0x3C00, symBinAddr: 0x1000069F4, symSize: 0x4C }
  - { offsetInCU: 0x1B498, offset: 0x1B498, size: 0x8, addend: 0x0, symName: __ZNSt3__16vectorI5TokenNS_9allocatorIS1_EEE7__allocB7v160006Ev, symObjAddr: 0x3C4C, symBinAddr: 0x100006A40, symSize: 0x28 }
  - { offsetInCU: 0x1B4BE, offset: 0x1B4BE, size: 0x8, addend: 0x0, symName: __ZNSt3__16vectorI5TokenNS_9allocatorIS1_EEE21_ConstructTransactionD1B7v160006Ev, symObjAddr: 0x3C88, symBinAddr: 0x100006A7C, symSize: 0x2C }
  - { offsetInCU: 0x1B4E8, offset: 0x1B4E8, size: 0x8, addend: 0x0, symName: __ZNSt3__16vectorI5TokenNS_9allocatorIS1_EEE21_ConstructTransactionC2B7v160006ERS4_m, symObjAddr: 0x3CB4, symBinAddr: 0x100006AA8, symSize: 0x4C }
  - { offsetInCU: 0x1B530, offset: 0x1B530, size: 0x8, addend: 0x0, symName: __ZNSt3__19allocatorI5TokenE9constructB7v160006IS1_JR9TokenTypeNS_12basic_stringIcNS_11char_traitsIcEENS0_IcEEEENS_3anyERiEEEvPT_DpOT0_, symObjAddr: 0x3D00, symBinAddr: 0x100006AF4, symSize: 0xF0 }
  - { offsetInCU: 0x1B5C2, offset: 0x1B5C2, size: 0x8, addend: 0x0, symName: __ZNSt3__112basic_stringIcNS_11char_traitsIcEENS_9allocatorIcEEEC1B7v160006EOS5_, symObjAddr: 0x3DF0, symBinAddr: 0x100006BE4, symSize: 0x34 }
  - { offsetInCU: 0x1B5FB, offset: 0x1B5FB, size: 0x8, addend: 0x0, symName: __ZNSt3__13anyC1B7v160006EOS0_, symObjAddr: 0x3E24, symBinAddr: 0x100006C18, symSize: 0x34 }
  - { offsetInCU: 0x1B633, offset: 0x1B633, size: 0x8, addend: 0x0, symName: __ZN5TokenC1E9TokenTypeNSt3__112basic_stringIcNS1_11char_traitsIcEENS1_9allocatorIcEEEENS1_3anyEi, symObjAddr: 0x3E58, symBinAddr: 0x100006C4C, symSize: 0x4C }
  - { offsetInCU: 0x1B697, offset: 0x1B697, size: 0x8, addend: 0x0, symName: __ZNSt3__112basic_stringIcNS_11char_traitsIcEENS_9allocatorIcEEEC2B7v160006EOS5_, symObjAddr: 0x3EA4, symBinAddr: 0x100006C98, symSize: 0x84 }
  - { offsetInCU: 0x1B6D0, offset: 0x1B6D0, size: 0x8, addend: 0x0, symName: __ZNSt3__112basic_stringIcNS_11char_traitsIcEENS_9allocatorIcEEE14__default_initB7v160006Ev, symObjAddr: 0x3F28, symBinAddr: 0x100006D1C, symSize: 0x40 }
  - { offsetInCU: 0x1B6F6, offset: 0x1B6F6, size: 0x8, addend: 0x0, symName: __ZNKSt3__112basic_stringIcNS_11char_traitsIcEENS_9allocatorIcEEE9__is_longB7v160006Ev, symObjAddr: 0x3F68, symBinAddr: 0x100006D5C, symSize: 0x38 }
  - { offsetInCU: 0x1B71C, offset: 0x1B71C, size: 0x8, addend: 0x0, symName: __ZNSt3__117__compressed_pairINS_12basic_stringIcNS_11char_traitsIcEENS_9allocatorIcEEE5__repES5_E5firstB7v160006Ev, symObjAddr: 0x3FB4, symBinAddr: 0x100006DA8, symSize: 0x24 }
  - { offsetInCU: 0x1B742, offset: 0x1B742, size: 0x8, addend: 0x0, symName: __ZNSt3__122__compressed_pair_elemINS_12basic_stringIcNS_11char_traitsIcEENS_9allocatorIcEEE5__repELi0ELb0EE5__getB7v160006Ev, symObjAddr: 0x3FD8, symBinAddr: 0x100006DCC, symSize: 0x14 }
  - { offsetInCU: 0x1B768, offset: 0x1B768, size: 0x8, addend: 0x0, symName: __ZNKSt3__117__compressed_pairINS_12basic_stringIcNS_11char_traitsIcEENS_9allocatorIcEEE5__repES5_E5firstB7v160006Ev, symObjAddr: 0x3FEC, symBinAddr: 0x100006DE0, symSize: 0x24 }
  - { offsetInCU: 0x1B78E, offset: 0x1B78E, size: 0x8, addend: 0x0, symName: __ZNKSt3__122__compressed_pair_elemINS_12basic_stringIcNS_11char_traitsIcEENS_9allocatorIcEEE5__repELi0ELb0EE5__getB7v160006Ev, symObjAddr: 0x4010, symBinAddr: 0x100006E04, symSize: 0x14 }
  - { offsetInCU: 0x1B7B4, offset: 0x1B7B4, size: 0x8, addend: 0x0, symName: __ZNSt3__13anyC2B7v160006EOS0_, symObjAddr: 0x4024, symBinAddr: 0x100006E18, symSize: 0x80 }
  - { offsetInCU: 0x1B7EC, offset: 0x1B7EC, size: 0x8, addend: 0x0, symName: __ZNSt3__13any8_StorageC1Ev, symObjAddr: 0x40A4, symBinAddr: 0x100006E98, symSize: 0x2C }
  - { offsetInCU: 0x1B816, offset: 0x1B816, size: 0x8, addend: 0x0, symName: __ZNSt3__13any6__callB7v160006ENS_9__any_imp7_ActionEPS0_PKSt9type_infoPKv, symObjAddr: 0x40D0, symBinAddr: 0x100006EC4, symSize: 0x48 }
  - { offsetInCU: 0x1B878, offset: 0x1B878, size: 0x8, addend: 0x0, symName: __ZNSt3__13any8_StorageC2Ev, symObjAddr: 0x4118, symBinAddr: 0x100006F0C, symSize: 0x18 }
  - { offsetInCU: 0x1B8A2, offset: 0x1B8A2, size: 0x8, addend: 0x0, symName: __ZN5TokenC2E9TokenTypeNSt3__112basic_stringIcNS1_11char_traitsIcEENS1_9allocatorIcEEEENS1_3anyEi, symObjAddr: 0x4130, symBinAddr: 0x100006F24, symSize: 0x70 }
  - { offsetInCU: 0x1B906, offset: 0x1B906, size: 0x8, addend: 0x0, symName: __ZNSt3__117__compressed_pairIP5TokenNS_9allocatorIS1_EEE6secondB7v160006Ev, symObjAddr: 0x41A0, symBinAddr: 0x100006F94, symSize: 0x24 }
  - { offsetInCU: 0x1B92C, offset: 0x1B92C, size: 0x8, addend: 0x0, symName: __ZNSt3__122__compressed_pair_elemINS_9allocatorI5TokenEELi1ELb1EE5__getB7v160006Ev, symObjAddr: 0x41C4, symBinAddr: 0x100006FB8, symSize: 0x14 }
  - { offsetInCU: 0x1B952, offset: 0x1B952, size: 0x8, addend: 0x0, symName: __ZNSt3__16vectorI5TokenNS_9allocatorIS1_EEE21_ConstructTransactionD2B7v160006Ev, symObjAddr: 0x41D8, symBinAddr: 0x100006FCC, symSize: 0x20 }
  - { offsetInCU: 0x1B97C, offset: 0x1B97C, size: 0x8, addend: 0x0, symName: __ZNKSt3__16vectorI5TokenNS_9allocatorIS1_EEE11__recommendB7v160006Em, symObjAddr: 0x41F8, symBinAddr: 0x100006FEC, symSize: 0xB4 }
  - { offsetInCU: 0x1B9D1, offset: 0x1B9D1, size: 0x8, addend: 0x0, symName: __ZNKSt3__16vectorI5TokenNS_9allocatorIS1_EEE4sizeB7v160006Ev, symObjAddr: 0x42AC, symBinAddr: 0x1000070A0, symSize: 0x28 }
  - { offsetInCU: 0x1B9F7, offset: 0x1B9F7, size: 0x8, addend: 0x0, symName: __ZNSt3__114__split_bufferI5TokenRNS_9allocatorIS1_EEEC1EmmS4_, symObjAddr: 0x42D4, symBinAddr: 0x1000070C8, symSize: 0x44 }
  - { offsetInCU: 0x1BA4D, offset: 0x1BA4D, size: 0x8, addend: 0x0, symName: __ZNSt3__114__split_bufferI5TokenRNS_9allocatorIS1_EEED1Ev, symObjAddr: 0x4430, symBinAddr: 0x100007224, symSize: 0x2C }
  - { offsetInCU: 0x1BA79, offset: 0x1BA79, size: 0x8, addend: 0x0, symName: __ZNKSt3__16vectorI5TokenNS_9allocatorIS1_EEE8max_sizeEv, symObjAddr: 0x445C, symBinAddr: 0x100007250, symSize: 0x60 }
  - { offsetInCU: 0x1BAA1, offset: 0x1BAA1, size: 0x8, addend: 0x0, symName: __ZNKSt3__16vectorI5TokenNS_9allocatorIS1_EEE20__throw_length_errorB7v160006Ev, symObjAddr: 0x44BC, symBinAddr: 0x1000072B0, symSize: 0x1C }
  - { offsetInCU: 0x1BAC7, offset: 0x1BAC7, size: 0x8, addend: 0x0, symName: __ZNKSt3__16vectorI5TokenNS_9allocatorIS1_EEE8capacityB7v160006Ev, symObjAddr: 0x44D8, symBinAddr: 0x1000072CC, symSize: 0x40 }
  - { offsetInCU: 0x1BAF8, offset: 0x1BAF8, size: 0x8, addend: 0x0, symName: __ZNSt3__116allocator_traitsINS_9allocatorI5TokenEEE8max_sizeB7v160006IS3_vEEmRKS3_, symObjAddr: 0x4544, symBinAddr: 0x100007338, symSize: 0x24 }
  - { offsetInCU: 0x1BB26, offset: 0x1BB26, size: 0x8, addend: 0x0, symName: __ZNKSt3__16vectorI5TokenNS_9allocatorIS1_EEE7__allocB7v160006Ev, symObjAddr: 0x4568, symBinAddr: 0x10000735C, symSize: 0x28 }
  - { offsetInCU: 0x1BB4C, offset: 0x1BB4C, size: 0x8, addend: 0x0, symName: __ZNSt3__114numeric_limitsIlE3maxB7v160006Ev, symObjAddr: 0x4590, symBinAddr: 0x100007384, symSize: 0x14 }
  - { offsetInCU: 0x1BB60, offset: 0x1BB60, size: 0x8, addend: 0x0, symName: __ZNKSt3__19allocatorI5TokenE8max_sizeB7v160006Ev, symObjAddr: 0x45A4, symBinAddr: 0x100007398, symSize: 0x20 }
  - { offsetInCU: 0x1BB86, offset: 0x1BB86, size: 0x8, addend: 0x0, symName: __ZNKSt3__117__compressed_pairIP5TokenNS_9allocatorIS1_EEE6secondB7v160006Ev, symObjAddr: 0x45C4, symBinAddr: 0x1000073B8, symSize: 0x24 }
  - { offsetInCU: 0x1BBAC, offset: 0x1BBAC, size: 0x8, addend: 0x0, symName: __ZNKSt3__122__compressed_pair_elemINS_9allocatorI5TokenEELi1ELb1EE5__getB7v160006Ev, symObjAddr: 0x45E8, symBinAddr: 0x1000073DC, symSize: 0x14 }
  - { offsetInCU: 0x1BBD2, offset: 0x1BBD2, size: 0x8, addend: 0x0, symName: __ZNSt3__123__libcpp_numeric_limitsIlLb1EE3maxB7v160006Ev, symObjAddr: 0x45FC, symBinAddr: 0x1000073F0, symSize: 0x8 }
  - { offsetInCU: 0x1BBE6, offset: 0x1BBE6, size: 0x8, addend: 0x0, symName: __ZNSt12length_errorC1B7v160006EPKc, symObjAddr: 0x4668, symBinAddr: 0x10000745C, symSize: 0x34 }
  - { offsetInCU: 0x1BC1E, offset: 0x1BC1E, size: 0x8, addend: 0x0, symName: __ZNSt12length_errorC2B7v160006EPKc, symObjAddr: 0x469C, symBinAddr: 0x100007490, symSize: 0x4C }
  - { offsetInCU: 0x1BC56, offset: 0x1BC56, size: 0x8, addend: 0x0, symName: __ZNKSt3__16vectorI5TokenNS_9allocatorIS1_EEE9__end_capB7v160006Ev, symObjAddr: 0x46E8, symBinAddr: 0x1000074DC, symSize: 0x28 }
  - { offsetInCU: 0x1BC7C, offset: 0x1BC7C, size: 0x8, addend: 0x0, symName: __ZNKSt3__117__compressed_pairIP5TokenNS_9allocatorIS1_EEE5firstB7v160006Ev, symObjAddr: 0x4710, symBinAddr: 0x100007504, symSize: 0x24 }
  - { offsetInCU: 0x1BCA2, offset: 0x1BCA2, size: 0x8, addend: 0x0, symName: __ZNKSt3__122__compressed_pair_elemIP5TokenLi0ELb0EE5__getB7v160006Ev, symObjAddr: 0x4734, symBinAddr: 0x100007528, symSize: 0x14 }
  - { offsetInCU: 0x1BCC8, offset: 0x1BCC8, size: 0x8, addend: 0x0, symName: __ZNSt3__114__split_bufferI5TokenRNS_9allocatorIS1_EEEC2EmmS4_, symObjAddr: 0x479C, symBinAddr: 0x100007590, symSize: 0xE0 }
  - { offsetInCU: 0x1BD3B, offset: 0x1BD3B, size: 0x8, addend: 0x0, symName: __ZNSt3__117__compressed_pairIP5TokenRNS_9allocatorIS1_EEEC1B7v160006IDnS5_EEOT_OT0_, symObjAddr: 0x487C, symBinAddr: 0x100007670, symSize: 0x3C }
  - { offsetInCU: 0x1BD93, offset: 0x1BD93, size: 0x8, addend: 0x0, symName: __ZNSt3__114__split_bufferI5TokenRNS_9allocatorIS1_EEE7__allocB7v160006Ev, symObjAddr: 0x48F8, symBinAddr: 0x1000076EC, symSize: 0x28 }
  - { offsetInCU: 0x1BDB9, offset: 0x1BDB9, size: 0x8, addend: 0x0, symName: __ZNSt3__114__split_bufferI5TokenRNS_9allocatorIS1_EEE9__end_capB7v160006Ev, symObjAddr: 0x4920, symBinAddr: 0x100007714, symSize: 0x28 }
  - { offsetInCU: 0x1BDDF, offset: 0x1BDDF, size: 0x8, addend: 0x0, symName: __ZNSt3__117__compressed_pairIP5TokenRNS_9allocatorIS1_EEEC2B7v160006IDnS5_EEOT_OT0_, symObjAddr: 0x4948, symBinAddr: 0x10000773C, symSize: 0x48 }
  - { offsetInCU: 0x1BE37, offset: 0x1BE37, size: 0x8, addend: 0x0, symName: __ZNSt3__122__compressed_pair_elemIRNS_9allocatorI5TokenEELi1ELb0EEC2B7v160006IS4_vEEOT_, symObjAddr: 0x4990, symBinAddr: 0x100007784, symSize: 0x20 }
  - { offsetInCU: 0x1BE79, offset: 0x1BE79, size: 0x8, addend: 0x0, symName: __ZNSt3__19allocatorI5TokenE8allocateB7v160006Em, symObjAddr: 0x49B0, symBinAddr: 0x1000077A4, symSize: 0x5C }
  - { offsetInCU: 0x1BEAD, offset: 0x1BEAD, size: 0x8, addend: 0x0, symName: __ZNSt3__117__compressed_pairIP5TokenRNS_9allocatorIS1_EEE6secondB7v160006Ev, symObjAddr: 0x4B10, symBinAddr: 0x100007904, symSize: 0x28 }
  - { offsetInCU: 0x1BED3, offset: 0x1BED3, size: 0x8, addend: 0x0, symName: __ZNSt3__122__compressed_pair_elemIRNS_9allocatorI5TokenEELi1ELb0EE5__getB7v160006Ev, symObjAddr: 0x4B38, symBinAddr: 0x10000792C, symSize: 0x18 }
  - { offsetInCU: 0x1BEF9, offset: 0x1BEF9, size: 0x8, addend: 0x0, symName: __ZNSt3__117__compressed_pairIP5TokenRNS_9allocatorIS1_EEE5firstB7v160006Ev, symObjAddr: 0x4B50, symBinAddr: 0x100007944, symSize: 0x24 }
  - { offsetInCU: 0x1BF1F, offset: 0x1BF1F, size: 0x8, addend: 0x0, symName: __ZNKSt3__16vectorI5TokenNS_9allocatorIS1_EEE17__annotate_deleteB7v160006Ev, symObjAddr: 0x4B74, symBinAddr: 0x100007968, symSize: 0xD4 }
  - { offsetInCU: 0x1BF45, offset: 0x1BF45, size: 0x8, addend: 0x0, symName: __ZNSt3__116reverse_iteratorIP5TokenEC1B7v160006ES2_, symObjAddr: 0x4D74, symBinAddr: 0x100007B68, symSize: 0x34 }
  - { offsetInCU: 0x1BF7D, offset: 0x1BF7D, size: 0x8, addend: 0x0, symName: __ZNKSt3__116reverse_iteratorIP5TokenE4baseB7v160006Ev, symObjAddr: 0x4DA8, symBinAddr: 0x100007B9C, symSize: 0x18 }
  - { offsetInCU: 0x1BFA3, offset: 0x1BFA3, size: 0x8, addend: 0x0, symName: __ZNKSt3__16vectorI5TokenNS_9allocatorIS1_EEE14__annotate_newB7v160006Em, symObjAddr: 0x4DFC, symBinAddr: 0x100007BF0, symSize: 0xC8 }
  - { offsetInCU: 0x1BFD8, offset: 0x1BFD8, size: 0x8, addend: 0x0, symName: __ZNKSt3__16vectorI5TokenNS_9allocatorIS1_EEE31__annotate_contiguous_containerB7v160006EPKvS6_S6_S6_, symObjAddr: 0x4ED4, symBinAddr: 0x100007CC8, symSize: 0x20 }
  - { offsetInCU: 0x1C02A, offset: 0x1C02A, size: 0x8, addend: 0x0, symName: __ZNKSt3__16vectorI5TokenNS_9allocatorIS1_EEE4dataB7v160006Ev, symObjAddr: 0x4EF4, symBinAddr: 0x100007CE8, symSize: 0x28 }
  - { offsetInCU: 0x1C050, offset: 0x1C050, size: 0x8, addend: 0x0, symName: __ZNSt3__129_AllocatorDestroyRangeReverseINS_9allocatorI5TokenEENS_16reverse_iteratorIPS2_EEEC1B7v160006ERS3_RS6_S9_, symObjAddr: 0x4F68, symBinAddr: 0x100007D5C, symSize: 0x44 }
  - { offsetInCU: 0x1C0A7, offset: 0x1C0A7, size: 0x8, addend: 0x0, symName: __ZNSt3__116allocator_traitsINS_9allocatorI5TokenEEE9constructB7v160006IS2_JRKS2_EvEEvRS3_PT_DpOT0_, symObjAddr: 0x4FF4, symBinAddr: 0x100007DE8, symSize: 0x34 }
  - { offsetInCU: 0x1C0FE, offset: 0x1C0FE, size: 0x8, addend: 0x0, symName: __ZNKSt3__116reverse_iteratorIP5TokenEdeB7v160006Ev, symObjAddr: 0x504C, symBinAddr: 0x100007E40, symSize: 0x28 }
  - { offsetInCU: 0x1C132, offset: 0x1C132, size: 0x8, addend: 0x0, symName: __ZNSt3__116reverse_iteratorIP5TokenEppB7v160006Ev, symObjAddr: 0x5074, symBinAddr: 0x100007E68, symSize: 0x20 }
  - { offsetInCU: 0x1C158, offset: 0x1C158, size: 0x8, addend: 0x0, symName: __ZNSt3__128__exception_guard_exceptionsINS_29_AllocatorDestroyRangeReverseINS_9allocatorI5TokenEENS_16reverse_iteratorIPS3_EEEEE10__completeB7v160006Ev, symObjAddr: 0x5094, symBinAddr: 0x100007E88, symSize: 0x1C }
  - { offsetInCU: 0x1C17E, offset: 0x1C17E, size: 0x8, addend: 0x0, symName: __ZNSt3__128__exception_guard_exceptionsINS_29_AllocatorDestroyRangeReverseINS_9allocatorI5TokenEENS_16reverse_iteratorIPS3_EEEEED1B7v160006Ev, symObjAddr: 0x50B0, symBinAddr: 0x100007EA4, symSize: 0x2C }
  - { offsetInCU: 0x1C1A8, offset: 0x1C1A8, size: 0x8, addend: 0x0, symName: __ZNSt3__128__exception_guard_exceptionsINS_29_AllocatorDestroyRangeReverseINS_9allocatorI5TokenEENS_16reverse_iteratorIPS3_EEEEEC1B7v160006ES8_, symObjAddr: 0x50DC, symBinAddr: 0x100007ED0, symSize: 0x34 }
  - { offsetInCU: 0x1C1E1, offset: 0x1C1E1, size: 0x8, addend: 0x0, symName: __ZNSt3__128__exception_guard_exceptionsINS_29_AllocatorDestroyRangeReverseINS_9allocatorI5TokenEENS_16reverse_iteratorIPS3_EEEEEC2B7v160006ES8_, symObjAddr: 0x5110, symBinAddr: 0x100007F04, symSize: 0x30 }
  - { offsetInCU: 0x1C21A, offset: 0x1C21A, size: 0x8, addend: 0x0, symName: __ZNSt3__129_AllocatorDestroyRangeReverseINS_9allocatorI5TokenEENS_16reverse_iteratorIPS2_EEEC2B7v160006ERS3_RS6_S9_, symObjAddr: 0x5140, symBinAddr: 0x100007F34, symSize: 0x38 }
  - { offsetInCU: 0x1C271, offset: 0x1C271, size: 0x8, addend: 0x0, symName: __ZNSt3__19allocatorI5TokenE9constructB7v160006IS1_JRKS1_EEEvPT_DpOT0_, symObjAddr: 0x5178, symBinAddr: 0x100007F6C, symSize: 0x30 }
  - { offsetInCU: 0x1C2C7, offset: 0x1C2C7, size: 0x8, addend: 0x0, symName: __ZN5TokenC1ERKS_, symObjAddr: 0x51A8, symBinAddr: 0x100007F9C, symSize: 0x34 }
  - { offsetInCU: 0x1C2FC, offset: 0x1C2FC, size: 0x8, addend: 0x0, symName: __ZN5TokenC2ERKS_, symObjAddr: 0x51DC, symBinAddr: 0x100007FD0, symSize: 0x94 }
  - { offsetInCU: 0x1C331, offset: 0x1C331, size: 0x8, addend: 0x0, symName: __ZNSt3__13anyC1B7v160006ERKS0_, symObjAddr: 0x5270, symBinAddr: 0x100008064, symSize: 0x34 }
  - { offsetInCU: 0x1C369, offset: 0x1C369, size: 0x8, addend: 0x0, symName: __ZNSt3__13anyC2B7v160006ERKS0_, symObjAddr: 0x52A4, symBinAddr: 0x100008098, symSize: 0x74 }
  - { offsetInCU: 0x1C3A1, offset: 0x1C3A1, size: 0x8, addend: 0x0, symName: __ZNKSt3__13any6__callB7v160006ENS_9__any_imp7_ActionEPS0_PKSt9type_infoPKv, symObjAddr: 0x5318, symBinAddr: 0x10000810C, symSize: 0x48 }
  - { offsetInCU: 0x1C409, offset: 0x1C409, size: 0x8, addend: 0x0, symName: __ZNSt3__119__to_address_helperINS_16reverse_iteratorIP5TokenEEvE6__callB7v160006ERKS4_, symObjAddr: 0x5360, symBinAddr: 0x100008154, symSize: 0x38 }
  - { offsetInCU: 0x1C42C, offset: 0x1C42C, size: 0x8, addend: 0x0, symName: __ZNKSt3__116reverse_iteratorIP5TokenEptB7v160006Ev, symObjAddr: 0x5398, symBinAddr: 0x10000818C, symSize: 0x24 }
  - { offsetInCU: 0x1C452, offset: 0x1C452, size: 0x8, addend: 0x0, symName: __ZNSt3__128__exception_guard_exceptionsINS_29_AllocatorDestroyRangeReverseINS_9allocatorI5TokenEENS_16reverse_iteratorIPS3_EEEEED2B7v160006Ev, symObjAddr: 0x53BC, symBinAddr: 0x1000081B0, symSize: 0x50 }
  - { offsetInCU: 0x1C47C, offset: 0x1C47C, size: 0x8, addend: 0x0, symName: __ZNKSt3__129_AllocatorDestroyRangeReverseINS_9allocatorI5TokenEENS_16reverse_iteratorIPS2_EEEclB7v160006Ev, symObjAddr: 0x540C, symBinAddr: 0x100008200, symSize: 0xB4 }
  - { offsetInCU: 0x1C4A3, offset: 0x1C4A3, size: 0x8, addend: 0x0, symName: __ZNSt3__116reverse_iteratorINS0_IP5TokenEEEC1B7v160006ES3_, symObjAddr: 0x5530, symBinAddr: 0x100008324, symSize: 0x3C }
  - { offsetInCU: 0x1C4DB, offset: 0x1C4DB, size: 0x8, addend: 0x0, symName: __ZNSt3__116allocator_traitsINS_9allocatorI5TokenEEE7destroyB7v160006IS2_vEEvRS3_PT_, symObjAddr: 0x55CC, symBinAddr: 0x1000083C0, symSize: 0x2C }
  - { offsetInCU: 0x1C518, offset: 0x1C518, size: 0x8, addend: 0x0, symName: __ZNSt3__116reverse_iteratorINS0_IP5TokenEEEppB7v160006Ev, symObjAddr: 0x561C, symBinAddr: 0x100008410, symSize: 0x30 }
  - { offsetInCU: 0x1C53E, offset: 0x1C53E, size: 0x8, addend: 0x0, symName: __ZNKSt3__116reverse_iteratorINS0_IP5TokenEEE4baseB7v160006Ev, symObjAddr: 0x564C, symBinAddr: 0x100008440, symSize: 0x24 }
  - { offsetInCU: 0x1C564, offset: 0x1C564, size: 0x8, addend: 0x0, symName: __ZNSt3__19allocatorI5TokenE7destroyB7v160006EPS1_, symObjAddr: 0x5670, symBinAddr: 0x100008464, symSize: 0x28 }
  - { offsetInCU: 0x1C598, offset: 0x1C598, size: 0x8, addend: 0x0, symName: __ZN5TokenD1Ev, symObjAddr: 0x5698, symBinAddr: 0x10000848C, symSize: 0x2C }
  - { offsetInCU: 0x1C5C4, offset: 0x1C5C4, size: 0x8, addend: 0x0, symName: __ZN5TokenD2Ev, symObjAddr: 0x56C4, symBinAddr: 0x1000084B8, symSize: 0x3C }
  - { offsetInCU: 0x1C5F6, offset: 0x1C5F6, size: 0x8, addend: 0x0, symName: __ZNSt3__119__to_address_helperINS_16reverse_iteratorINS1_IP5TokenEEEEvE6__callB7v160006ERKS5_, symObjAddr: 0x5700, symBinAddr: 0x1000084F4, symSize: 0x38 }
  - { offsetInCU: 0x1C619, offset: 0x1C619, size: 0x8, addend: 0x0, symName: __ZNKSt3__116reverse_iteratorINS0_IP5TokenEEEptB7v160006Ev, symObjAddr: 0x5738, symBinAddr: 0x10000852C, symSize: 0x24 }
  - { offsetInCU: 0x1C63F, offset: 0x1C63F, size: 0x8, addend: 0x0, symName: __ZNKSt3__116reverse_iteratorINS0_IP5TokenEEEdeB7v160006Ev, symObjAddr: 0x575C, symBinAddr: 0x100008550, symSize: 0x34 }
  - { offsetInCU: 0x1C673, offset: 0x1C673, size: 0x8, addend: 0x0, symName: __ZNSt3__116reverse_iteratorIP5TokenEmmB7v160006Ev, symObjAddr: 0x5790, symBinAddr: 0x100008584, symSize: 0x20 }
  - { offsetInCU: 0x1C699, offset: 0x1C699, size: 0x8, addend: 0x0, symName: __ZNSt3__116reverse_iteratorINS0_IP5TokenEEEC2B7v160006ES3_, symObjAddr: 0x57B0, symBinAddr: 0x1000085A4, symSize: 0x2C }
  - { offsetInCU: 0x1C6D1, offset: 0x1C6D1, size: 0x8, addend: 0x0, symName: __ZNSt3__116reverse_iteratorIP5TokenEC2B7v160006ES2_, symObjAddr: 0x57DC, symBinAddr: 0x1000085D0, symSize: 0x28 }
  - { offsetInCU: 0x1C709, offset: 0x1C709, size: 0x8, addend: 0x0, symName: __ZNSt3__114__split_bufferI5TokenRNS_9allocatorIS1_EEED2Ev, symObjAddr: 0x5804, symBinAddr: 0x1000085F8, symSize: 0x8C }
  - { offsetInCU: 0x1C735, offset: 0x1C735, size: 0x8, addend: 0x0, symName: __ZNSt3__114__split_bufferI5TokenRNS_9allocatorIS1_EEE5clearB7v160006Ev, symObjAddr: 0x5890, symBinAddr: 0x100008684, symSize: 0x28 }
  - { offsetInCU: 0x1C75B, offset: 0x1C75B, size: 0x8, addend: 0x0, symName: __ZNSt3__116allocator_traitsINS_9allocatorI5TokenEEE10deallocateB7v160006ERS3_PS2_m, symObjAddr: 0x58B8, symBinAddr: 0x1000086AC, symSize: 0x34 }
  - { offsetInCU: 0x1C79D, offset: 0x1C79D, size: 0x8, addend: 0x0, symName: __ZNKSt3__114__split_bufferI5TokenRNS_9allocatorIS1_EEE8capacityB7v160006Ev, symObjAddr: 0x58EC, symBinAddr: 0x1000086E0, symSize: 0x40 }
  - { offsetInCU: 0x1C7C3, offset: 0x1C7C3, size: 0x8, addend: 0x0, symName: __ZNSt3__114__split_bufferI5TokenRNS_9allocatorIS1_EEE17__destruct_at_endB7v160006EPS1_, symObjAddr: 0x592C, symBinAddr: 0x100008720, symSize: 0x2C }
  - { offsetInCU: 0x1C7F7, offset: 0x1C7F7, size: 0x8, addend: 0x0, symName: __ZNSt3__114__split_bufferI5TokenRNS_9allocatorIS1_EEE17__destruct_at_endB7v160006EPS1_NS_17integral_constantIbLb0EEE, symObjAddr: 0x5958, symBinAddr: 0x10000874C, symSize: 0x80 }
  - { offsetInCU: 0x1C838, offset: 0x1C838, size: 0x8, addend: 0x0, symName: __ZNSt3__19allocatorI5TokenE10deallocateB7v160006EPS1_m, symObjAddr: 0x59D8, symBinAddr: 0x1000087CC, symSize: 0x44 }
  - { offsetInCU: 0x1C87A, offset: 0x1C87A, size: 0x8, addend: 0x0, symName: __ZNKSt3__114__split_bufferI5TokenRNS_9allocatorIS1_EEE9__end_capB7v160006Ev, symObjAddr: 0x5B24, symBinAddr: 0x100008918, symSize: 0x28 }
  - { offsetInCU: 0x1C8A0, offset: 0x1C8A0, size: 0x8, addend: 0x0, symName: __ZNKSt3__117__compressed_pairIP5TokenRNS_9allocatorIS1_EEE5firstB7v160006Ev, symObjAddr: 0x5B4C, symBinAddr: 0x100008940, symSize: 0x24 }
  - { offsetInCU: 0x1C8C6, offset: 0x1C8C6, size: 0x8, addend: 0x0, symName: __ZNSt3__13anyC2B7v160006IDnDnvEEOT_, symObjAddr: 0x5B70, symBinAddr: 0x100008964, symSize: 0x44 }
  - { offsetInCU: 0x1C918, offset: 0x1C918, size: 0x8, addend: 0x0, symName: __ZNSt3__19__any_imp13_SmallHandlerIDnE8__createB7v160006IJDnEEERDnRNS_3anyEDpOT_, symObjAddr: 0x5BB4, symBinAddr: 0x1000089A8, symSize: 0x5C }
  - { offsetInCU: 0x1C99D, offset: 0x1C99D, size: 0x8, addend: 0x0, symName: __ZNSt3__19allocatorIDnEC1B7v160006Ev, symObjAddr: 0x5C10, symBinAddr: 0x100008A04, symSize: 0x2C }
  - { offsetInCU: 0x1C9CD, offset: 0x1C9CD, size: 0x8, addend: 0x0, symName: __ZNSt3__116allocator_traitsINS_9allocatorIDnEEE9constructB7v160006IDnJDnEvEEvRS2_PT_DpOT0_, symObjAddr: 0x5C3C, symBinAddr: 0x100008A30, symSize: 0x34 }
  - { offsetInCU: 0x1CA24, offset: 0x1CA24, size: 0x8, addend: 0x0, symName: __ZNSt3__19__any_imp13_SmallHandlerIDnE8__handleB7v160006ENS0_7_ActionEPKNS_3anyEPS4_PKSt9type_infoPKv, symObjAddr: 0x5C70, symBinAddr: 0x100008A64, symSize: 0xC4 }
  - { offsetInCU: 0x1CA84, offset: 0x1CA84, size: 0x8, addend: 0x0, symName: __ZNSt3__19allocatorIDnEC2B7v160006Ev, symObjAddr: 0x5D48, symBinAddr: 0x100008B3C, symSize: 0x2C }
  - { offsetInCU: 0x1CAAE, offset: 0x1CAAE, size: 0x8, addend: 0x0, symName: __ZNSt3__116__non_trivial_ifILb1ENS_9allocatorIDnEEEC2B7v160006Ev, symObjAddr: 0x5D74, symBinAddr: 0x100008B68, symSize: 0x14 }
  - { offsetInCU: 0x1CAD8, offset: 0x1CAD8, size: 0x8, addend: 0x0, symName: __ZNSt3__19allocatorIDnE9constructB7v160006IDnJDnEEEvPT_DpOT0_, symObjAddr: 0x5D88, symBinAddr: 0x100008B7C, symSize: 0x20 }
  - { offsetInCU: 0x1CB2E, offset: 0x1CB2E, size: 0x8, addend: 0x0, symName: __ZNSt3__19__any_imp13_SmallHandlerIDnE9__destroyB7v160006ERNS_3anyE, symObjAddr: 0x5DA8, symBinAddr: 0x100008B9C, symSize: 0x48 }
  - { offsetInCU: 0x1CB7C, offset: 0x1CB7C, size: 0x8, addend: 0x0, symName: __ZNSt3__19__any_imp13_SmallHandlerIDnE6__copyB7v160006ERKNS_3anyERS3_, symObjAddr: 0x5DF0, symBinAddr: 0x100008BE4, symSize: 0x30 }
  - { offsetInCU: 0x1CBAF, offset: 0x1CBAF, size: 0x8, addend: 0x0, symName: __ZNSt3__19__any_imp13_SmallHandlerIDnE6__moveB7v160006ERNS_3anyES4_, symObjAddr: 0x5E20, symBinAddr: 0x100008C14, symSize: 0x38 }
  - { offsetInCU: 0x1CBE2, offset: 0x1CBE2, size: 0x8, addend: 0x0, symName: __ZNSt3__19__any_imp13_SmallHandlerIDnE5__getB7v160006ERNS_3anyEPKSt9type_infoPKv, symObjAddr: 0x5E58, symBinAddr: 0x100008C4C, symSize: 0x54 }
  - { offsetInCU: 0x1CC24, offset: 0x1CC24, size: 0x8, addend: 0x0, symName: __ZNSt3__19__any_imp13_SmallHandlerIDnE11__type_infoB7v160006Ev, symObjAddr: 0x5EAC, symBinAddr: 0x100008CA0, symSize: 0xC }
  - { offsetInCU: 0x1CC38, offset: 0x1CC38, size: 0x8, addend: 0x0, symName: __ZNSt3__116allocator_traitsINS_9allocatorIDnEEE7destroyB7v160006IDnvEEvRS2_PT_, symObjAddr: 0x5EBC, symBinAddr: 0x100008CB0, symSize: 0x2C }
  - { offsetInCU: 0x1CC75, offset: 0x1CC75, size: 0x8, addend: 0x0, symName: __ZNSt3__19allocatorIDnE7destroyB7v160006EPDn, symObjAddr: 0x5EE8, symBinAddr: 0x100008CDC, symSize: 0x14 }
  - { offsetInCU: 0x1CCA9, offset: 0x1CCA9, size: 0x8, addend: 0x0, symName: __ZNSt3__19__any_imp13_SmallHandlerIDnE8__createB7v160006IJRKDnEEERDnRNS_3anyEDpOT_, symObjAddr: 0x5EFC, symBinAddr: 0x100008CF0, symSize: 0x5C }
  - { offsetInCU: 0x1CD11, offset: 0x1CD11, size: 0x8, addend: 0x0, symName: __ZNSt3__116allocator_traitsINS_9allocatorIDnEEE9constructB7v160006IDnJRKDnEvEEvRS2_PT_DpOT0_, symObjAddr: 0x5F58, symBinAddr: 0x100008D4C, symSize: 0x34 }
  - { offsetInCU: 0x1CD68, offset: 0x1CD68, size: 0x8, addend: 0x0, symName: __ZNSt3__19allocatorIDnE9constructB7v160006IDnJRKDnEEEvPT_DpOT0_, symObjAddr: 0x5F8C, symBinAddr: 0x100008D80, symSize: 0x20 }
  - { offsetInCU: 0x1CDF4, offset: 0x1CDF4, size: 0x8, addend: 0x0, symName: __ZNKSt9type_infoeqB7v160006ERKS_, symObjAddr: 0x6070, symBinAddr: 0x100008E64, symSize: 0xDC }
  - { offsetInCU: 0x1CE92, offset: 0x1CE92, size: 0x8, addend: 0x0, symName: __ZNSt27__type_info_implementations30__non_unique_arm_rtti_bit_impl21__is_type_name_uniqueB7v160006Em, symObjAddr: 0x6158, symBinAddr: 0x100008F4C, symSize: 0x20 }
  - { offsetInCU: 0x1CEB6, offset: 0x1CEB6, size: 0x8, addend: 0x0, symName: __ZNSt3__13anyD2B7v160006Ev, symObjAddr: 0x6178, symBinAddr: 0x100008F6C, symSize: 0x2C }
  - { offsetInCU: 0x1CEE0, offset: 0x1CEE0, size: 0x8, addend: 0x0, symName: __ZNSt3__13any5resetB7v160006Ev, symObjAddr: 0x61A4, symBinAddr: 0x100008F98, symSize: 0x5C }
  - { offsetInCU: 0x1CF06, offset: 0x1CF06, size: 0x8, addend: 0x0, symName: __ZNSt3__13anyC1B7v160006IRNS_12basic_stringIcNS_11char_traitsIcEENS_9allocatorIcEEEES7_vEEOT_, symObjAddr: 0x6200, symBinAddr: 0x100008FF4, symSize: 0x34 }
  - { offsetInCU: 0x1CF52, offset: 0x1CF52, size: 0x8, addend: 0x0, symName: __ZNSt3__13anyC2B7v160006IRNS_12basic_stringIcNS_11char_traitsIcEENS_9allocatorIcEEEES7_vEEOT_, symObjAddr: 0x6234, symBinAddr: 0x100009028, symSize: 0x44 }
  - { offsetInCU: 0x1CF9E, offset: 0x1CF9E, size: 0x8, addend: 0x0, symName: __ZNSt3__19__any_imp13_SmallHandlerINS_12basic_stringIcNS_11char_traitsIcEENS_9allocatorIcEEEEE8__createB7v160006IJRS7_EEESA_RNS_3anyEDpOT_, symObjAddr: 0x6278, symBinAddr: 0x10000906C, symSize: 0x5C }
  - { offsetInCU: 0x1D01D, offset: 0x1D01D, size: 0x8, addend: 0x0, symName: __ZNSt3__19allocatorINS_12basic_stringIcNS_11char_traitsIcEENS0_IcEEEEEC1B7v160006Ev, symObjAddr: 0x62D4, symBinAddr: 0x1000090C8, symSize: 0x2C }
  - { offsetInCU: 0x1D04D, offset: 0x1D04D, size: 0x8, addend: 0x0, symName: __ZNSt3__116allocator_traitsINS_9allocatorINS_12basic_stringIcNS_11char_traitsIcEENS1_IcEEEEEEE9constructB7v160006IS6_JRS6_EvEEvRS7_PT_DpOT0_, symObjAddr: 0x6300, symBinAddr: 0x1000090F4, symSize: 0x34 }
  - { offsetInCU: 0x1D0A4, offset: 0x1D0A4, size: 0x8, addend: 0x0, symName: __ZNSt3__19__any_imp13_SmallHandlerINS_12basic_stringIcNS_11char_traitsIcEENS_9allocatorIcEEEEE8__handleB7v160006ENS0_7_ActionEPKNS_3anyEPSA_PKSt9type_infoPKv, symObjAddr: 0x6334, symBinAddr: 0x100009128, symSize: 0xC4 }
  - { offsetInCU: 0x1D104, offset: 0x1D104, size: 0x8, addend: 0x0, symName: __ZNSt3__19allocatorINS_12basic_stringIcNS_11char_traitsIcEENS0_IcEEEEEC2B7v160006Ev, symObjAddr: 0x640C, symBinAddr: 0x100009200, symSize: 0x2C }
  - { offsetInCU: 0x1D12E, offset: 0x1D12E, size: 0x8, addend: 0x0, symName: __ZNSt3__116__non_trivial_ifILb1ENS_9allocatorINS_12basic_stringIcNS_11char_traitsIcEENS1_IcEEEEEEEC2B7v160006Ev, symObjAddr: 0x6438, symBinAddr: 0x10000922C, symSize: 0x14 }
  - { offsetInCU: 0x1D158, offset: 0x1D158, size: 0x8, addend: 0x0, symName: __ZNSt3__19allocatorINS_12basic_stringIcNS_11char_traitsIcEENS0_IcEEEEE9constructB7v160006IS5_JRS5_EEEvPT_DpOT0_, symObjAddr: 0x644C, symBinAddr: 0x100009240, symSize: 0x30 }
  - { offsetInCU: 0x1D1AE, offset: 0x1D1AE, size: 0x8, addend: 0x0, symName: __ZNSt3__19__any_imp13_SmallHandlerINS_12basic_stringIcNS_11char_traitsIcEENS_9allocatorIcEEEEE9__destroyB7v160006ERNS_3anyE, symObjAddr: 0x647C, symBinAddr: 0x100009270, symSize: 0x48 }
  - { offsetInCU: 0x1D1FC, offset: 0x1D1FC, size: 0x8, addend: 0x0, symName: __ZNSt3__19__any_imp13_SmallHandlerINS_12basic_stringIcNS_11char_traitsIcEENS_9allocatorIcEEEEE6__copyB7v160006ERKNS_3anyERS9_, symObjAddr: 0x64C4, symBinAddr: 0x1000092B8, symSize: 0x30 }
  - { offsetInCU: 0x1D22F, offset: 0x1D22F, size: 0x8, addend: 0x0, symName: __ZNSt3__19__any_imp13_SmallHandlerINS_12basic_stringIcNS_11char_traitsIcEENS_9allocatorIcEEEEE6__moveB7v160006ERNS_3anyESA_, symObjAddr: 0x64F4, symBinAddr: 0x1000092E8, symSize: 0x38 }
  - { offsetInCU: 0x1D262, offset: 0x1D262, size: 0x8, addend: 0x0, symName: __ZNSt3__19__any_imp13_SmallHandlerINS_12basic_stringIcNS_11char_traitsIcEENS_9allocatorIcEEEEE5__getB7v160006ERNS_3anyEPKSt9type_infoPKv, symObjAddr: 0x652C, symBinAddr: 0x100009320, symSize: 0x54 }
  - { offsetInCU: 0x1D2A4, offset: 0x1D2A4, size: 0x8, addend: 0x0, symName: __ZNSt3__19__any_imp13_SmallHandlerINS_12basic_stringIcNS_11char_traitsIcEENS_9allocatorIcEEEEE11__type_infoB7v160006Ev, symObjAddr: 0x6580, symBinAddr: 0x100009374, symSize: 0xC }
  - { offsetInCU: 0x1D2B8, offset: 0x1D2B8, size: 0x8, addend: 0x0, symName: __ZNSt3__116allocator_traitsINS_9allocatorINS_12basic_stringIcNS_11char_traitsIcEENS1_IcEEEEEEE7destroyB7v160006IS6_vEEvRS7_PT_, symObjAddr: 0x658C, symBinAddr: 0x100009380, symSize: 0x2C }
  - { offsetInCU: 0x1D2F5, offset: 0x1D2F5, size: 0x8, addend: 0x0, symName: __ZNSt3__19allocatorINS_12basic_stringIcNS_11char_traitsIcEENS0_IcEEEEE7destroyB7v160006EPS5_, symObjAddr: 0x65B8, symBinAddr: 0x1000093AC, symSize: 0x28 }
  - { offsetInCU: 0x1D329, offset: 0x1D329, size: 0x8, addend: 0x0, symName: __ZNSt3__19__any_imp13_SmallHandlerINS_12basic_stringIcNS_11char_traitsIcEENS_9allocatorIcEEEEE8__createB7v160006IJRKS7_EEERS7_RNS_3anyEDpOT_, symObjAddr: 0x65E0, symBinAddr: 0x1000093D4, symSize: 0x5C }
  - { offsetInCU: 0x1D391, offset: 0x1D391, size: 0x8, addend: 0x0, symName: __ZNSt3__116allocator_traitsINS_9allocatorINS_12basic_stringIcNS_11char_traitsIcEENS1_IcEEEEEEE9constructB7v160006IS6_JRKS6_EvEEvRS7_PT_DpOT0_, symObjAddr: 0x663C, symBinAddr: 0x100009430, symSize: 0x34 }
  - { offsetInCU: 0x1D3E8, offset: 0x1D3E8, size: 0x8, addend: 0x0, symName: __ZNSt3__19allocatorINS_12basic_stringIcNS_11char_traitsIcEENS0_IcEEEEE9constructB7v160006IS5_JRKS5_EEEvPT_DpOT0_, symObjAddr: 0x6670, symBinAddr: 0x100009464, symSize: 0x30 }
  - { offsetInCU: 0x1D43E, offset: 0x1D43E, size: 0x8, addend: 0x0, symName: __ZNSt3__19__any_imp13_SmallHandlerINS_12basic_stringIcNS_11char_traitsIcEENS_9allocatorIcEEEEE8__createB7v160006IJS7_EEERS7_RNS_3anyEDpOT_, symObjAddr: 0x66A0, symBinAddr: 0x100009494, symSize: 0x5C }
  - { offsetInCU: 0x1D4A6, offset: 0x1D4A6, size: 0x8, addend: 0x0, symName: __ZNSt3__116allocator_traitsINS_9allocatorINS_12basic_stringIcNS_11char_traitsIcEENS1_IcEEEEEEE9constructB7v160006IS6_JS6_EvEEvRS7_PT_DpOT0_, symObjAddr: 0x66FC, symBinAddr: 0x1000094F0, symSize: 0x34 }
  - { offsetInCU: 0x1D4FD, offset: 0x1D4FD, size: 0x8, addend: 0x0, symName: __ZNSt3__19allocatorINS_12basic_stringIcNS_11char_traitsIcEENS0_IcEEEEE9constructB7v160006IS5_JS5_EEEvPT_DpOT0_, symObjAddr: 0x6730, symBinAddr: 0x100009524, symSize: 0x30 }
  - { offsetInCU: 0x1D553, offset: 0x1D553, size: 0x8, addend: 0x0, symName: __ZN7Scanner8peekNextEv, symObjAddr: 0x6830, symBinAddr: 0x100009624, symSize: 0x80 }
  - { offsetInCU: 0x1D57F, offset: 0x1D57F, size: 0x8, addend: 0x0, symName: __ZNSt3__13anyC1B7v160006IddvEEOT_, symObjAddr: 0x68B0, symBinAddr: 0x1000096A4, symSize: 0x34 }
  - { offsetInCU: 0x1D5CB, offset: 0x1D5CB, size: 0x8, addend: 0x0, symName: __ZNSt3__13anyC2B7v160006IddvEEOT_, symObjAddr: 0x68E4, symBinAddr: 0x1000096D8, symSize: 0x44 }
  - { offsetInCU: 0x1D617, offset: 0x1D617, size: 0x8, addend: 0x0, symName: __ZNSt3__19__any_imp13_SmallHandlerIdE8__createB7v160006IJdEEERdRNS_3anyEDpOT_, symObjAddr: 0x6928, symBinAddr: 0x10000971C, symSize: 0x5C }
  - { offsetInCU: 0x1D69C, offset: 0x1D69C, size: 0x8, addend: 0x0, symName: __ZNSt3__19allocatorIdEC1B7v160006Ev, symObjAddr: 0x6984, symBinAddr: 0x100009778, symSize: 0x2C }
  - { offsetInCU: 0x1D6CC, offset: 0x1D6CC, size: 0x8, addend: 0x0, symName: __ZNSt3__116allocator_traitsINS_9allocatorIdEEE9constructB7v160006IdJdEvEEvRS2_PT_DpOT0_, symObjAddr: 0x69B0, symBinAddr: 0x1000097A4, symSize: 0x34 }
  - { offsetInCU: 0x1D723, offset: 0x1D723, size: 0x8, addend: 0x0, symName: __ZNSt3__19__any_imp13_SmallHandlerIdE8__handleB7v160006ENS0_7_ActionEPKNS_3anyEPS4_PKSt9type_infoPKv, symObjAddr: 0x69E4, symBinAddr: 0x1000097D8, symSize: 0xC4 }
  - { offsetInCU: 0x1D783, offset: 0x1D783, size: 0x8, addend: 0x0, symName: __ZNSt3__19allocatorIdEC2B7v160006Ev, symObjAddr: 0x6ABC, symBinAddr: 0x1000098B0, symSize: 0x2C }
  - { offsetInCU: 0x1D7AD, offset: 0x1D7AD, size: 0x8, addend: 0x0, symName: __ZNSt3__116__non_trivial_ifILb1ENS_9allocatorIdEEEC2B7v160006Ev, symObjAddr: 0x6AE8, symBinAddr: 0x1000098DC, symSize: 0x14 }
  - { offsetInCU: 0x1D7D7, offset: 0x1D7D7, size: 0x8, addend: 0x0, symName: __ZNSt3__19allocatorIdE9constructB7v160006IdJdEEEvPT_DpOT0_, symObjAddr: 0x6AFC, symBinAddr: 0x1000098F0, symSize: 0x28 }
  - { offsetInCU: 0x1D82D, offset: 0x1D82D, size: 0x8, addend: 0x0, symName: __ZNSt3__19__any_imp13_SmallHandlerIdE9__destroyB7v160006ERNS_3anyE, symObjAddr: 0x6B24, symBinAddr: 0x100009918, symSize: 0x48 }
  - { offsetInCU: 0x1D87B, offset: 0x1D87B, size: 0x8, addend: 0x0, symName: __ZNSt3__19__any_imp13_SmallHandlerIdE6__copyB7v160006ERKNS_3anyERS3_, symObjAddr: 0x6B6C, symBinAddr: 0x100009960, symSize: 0x30 }
  - { offsetInCU: 0x1D8AE, offset: 0x1D8AE, size: 0x8, addend: 0x0, symName: __ZNSt3__19__any_imp13_SmallHandlerIdE6__moveB7v160006ERNS_3anyES4_, symObjAddr: 0x6B9C, symBinAddr: 0x100009990, symSize: 0x38 }
  - { offsetInCU: 0x1D8E1, offset: 0x1D8E1, size: 0x8, addend: 0x0, symName: __ZNSt3__19__any_imp13_SmallHandlerIdE5__getB7v160006ERNS_3anyEPKSt9type_infoPKv, symObjAddr: 0x6BD4, symBinAddr: 0x1000099C8, symSize: 0x54 }
  - { offsetInCU: 0x1D923, offset: 0x1D923, size: 0x8, addend: 0x0, symName: __ZNSt3__19__any_imp13_SmallHandlerIdE11__type_infoB7v160006Ev, symObjAddr: 0x6C28, symBinAddr: 0x100009A1C, symSize: 0xC }
  - { offsetInCU: 0x1D937, offset: 0x1D937, size: 0x8, addend: 0x0, symName: __ZNSt3__116allocator_traitsINS_9allocatorIdEEE7destroyB7v160006IdvEEvRS2_PT_, symObjAddr: 0x6C34, symBinAddr: 0x100009A28, symSize: 0x2C }
  - { offsetInCU: 0x1D974, offset: 0x1D974, size: 0x8, addend: 0x0, symName: __ZNSt3__19allocatorIdE7destroyB7v160006EPd, symObjAddr: 0x6C60, symBinAddr: 0x100009A54, symSize: 0x14 }
  - { offsetInCU: 0x1D9A8, offset: 0x1D9A8, size: 0x8, addend: 0x0, symName: __ZNSt3__19__any_imp13_SmallHandlerIdE8__createB7v160006IJRKdEEERdRNS_3anyEDpOT_, symObjAddr: 0x6C74, symBinAddr: 0x100009A68, symSize: 0x5C }
  - { offsetInCU: 0x1DA10, offset: 0x1DA10, size: 0x8, addend: 0x0, symName: __ZNSt3__116allocator_traitsINS_9allocatorIdEEE9constructB7v160006IdJRKdEvEEvRS2_PT_DpOT0_, symObjAddr: 0x6CD0, symBinAddr: 0x100009AC4, symSize: 0x34 }
  - { offsetInCU: 0x1DA67, offset: 0x1DA67, size: 0x8, addend: 0x0, symName: __ZNSt3__19allocatorIdE9constructB7v160006IdJRKdEEEvPT_DpOT0_, symObjAddr: 0x6D04, symBinAddr: 0x100009AF8, symSize: 0x28 }
  - { offsetInCU: 0x1DABD, offset: 0x1DABD, size: 0x8, addend: 0x0, symName: __ZN7Scanner14isAlphaNumericEc, symObjAddr: 0x6DFC, symBinAddr: 0x100009BF0, symSize: 0x5C }
  - { offsetInCU: 0x1DAF1, offset: 0x1DAF1, size: 0x8, addend: 0x0, symName: __ZNKSt3__13mapINS_12basic_stringIcNS_11char_traitsIcEENS_9allocatorIcEEEE9TokenTypeNS_4lessIS6_EENS4_INS_4pairIKS6_S7_EEEEE4findB7v160006ERSB_, symObjAddr: 0x6E58, symBinAddr: 0x100009C4C, symSize: 0x40 }
  - { offsetInCU: 0x1DB26, offset: 0x1DB26, size: 0x8, addend: 0x0, symName: __ZNKSt3__13mapINS_12basic_stringIcNS_11char_traitsIcEENS_9allocatorIcEEEE9TokenTypeNS_4lessIS6_EENS4_INS_4pairIKS6_S7_EEEEE3endB7v160006Ev, symObjAddr: 0x6EC8, symBinAddr: 0x100009CBC, symSize: 0x38 }
  - { offsetInCU: 0x1DB4C, offset: 0x1DB4C, size: 0x8, addend: 0x0, symName: __ZNKSt3__120__map_const_iteratorINS_21__tree_const_iteratorINS_12__value_typeINS_12basic_stringIcNS_11char_traitsIcEENS_9allocatorIcEEEE9TokenTypeEEPNS_11__tree_nodeISA_PvEElEEEptB7v160006Ev, symObjAddr: 0x6F00, symBinAddr: 0x100009CF4, symSize: 0x2C }
  - { offsetInCU: 0x1DB72, offset: 0x1DB72, size: 0x8, addend: 0x0, symName: __ZNKSt3__16__treeINS_12__value_typeINS_12basic_stringIcNS_11char_traitsIcEENS_9allocatorIcEEEE9TokenTypeEENS_19__map_value_compareIS7_S9_NS_4lessIS7_EELb1EEENS5_IS9_EEE4findIS7_EENS_21__tree_const_iteratorIS9_PNS_11__tree_nodeIS9_PvEElEERKT_, symObjAddr: 0x6F2C, symBinAddr: 0x100009D20, symSize: 0xF8 }
  - { offsetInCU: 0x1DBC1, offset: 0x1DBC1, size: 0x8, addend: 0x0, symName: __ZNSt3__120__map_const_iteratorINS_21__tree_const_iteratorINS_12__value_typeINS_12basic_stringIcNS_11char_traitsIcEENS_9allocatorIcEEEE9TokenTypeEEPNS_11__tree_nodeISA_PvEElEEEC1B7v160006ESF_, symObjAddr: 0x7024, symBinAddr: 0x100009E18, symSize: 0x34 }
  - { offsetInCU: 0x1DBFA, offset: 0x1DBFA, size: 0x8, addend: 0x0, symName: __ZNKSt3__16__treeINS_12__value_typeINS_12basic_stringIcNS_11char_traitsIcEENS_9allocatorIcEEEE9TokenTypeEENS_19__map_value_compareIS7_S9_NS_4lessIS7_EELb1EEENS5_IS9_EEE13__lower_boundIS7_EENS_21__tree_const_iteratorIS9_PNS_11__tree_nodeIS9_PvEElEERKT_SL_PNS_15__tree_end_nodeIPNS_16__tree_node_baseISJ_EEEE, symObjAddr: 0x7058, symBinAddr: 0x100009E4C, symSize: 0xA4 }
  - { offsetInCU: 0x1DC58, offset: 0x1DC58, size: 0x8, addend: 0x0, symName: __ZNKSt3__16__treeINS_12__value_typeINS_12basic_stringIcNS_11char_traitsIcEENS_9allocatorIcEEEE9TokenTypeEENS_19__map_value_compareIS7_S9_NS_4lessIS7_EELb1EEENS5_IS9_EEE6__rootB7v160006Ev, symObjAddr: 0x70FC, symBinAddr: 0x100009EF0, symSize: 0x28 }
  - { offsetInCU: 0x1DC7E, offset: 0x1DC7E, size: 0x8, addend: 0x0, symName: __ZNKSt3__16__treeINS_12__value_typeINS_12basic_stringIcNS_11char_traitsIcEENS_9allocatorIcEEEE9TokenTypeEENS_19__map_value_compareIS7_S9_NS_4lessIS7_EELb1EEENS5_IS9_EEE10__end_nodeB7v160006Ev, symObjAddr: 0x7124, symBinAddr: 0x100009F18, symSize: 0x2C }
  - { offsetInCU: 0x1DCA4, offset: 0x1DCA4, size: 0x8, addend: 0x0, symName: __ZNKSt3__16__treeINS_12__value_typeINS_12basic_stringIcNS_11char_traitsIcEENS_9allocatorIcEEEE9TokenTypeEENS_19__map_value_compareIS7_S9_NS_4lessIS7_EELb1EEENS5_IS9_EEE3endB7v160006Ev, symObjAddr: 0x7184, symBinAddr: 0x100009F78, symSize: 0x34 }
  - { offsetInCU: 0x1DCCA, offset: 0x1DCCA, size: 0x8, addend: 0x0, symName: __ZNKSt3__16__treeINS_12__value_typeINS_12basic_stringIcNS_11char_traitsIcEENS_9allocatorIcEEEE9TokenTypeEENS_19__map_value_compareIS7_S9_NS_4lessIS7_EELb1EEENS5_IS9_EEE10value_compB7v160006Ev, symObjAddr: 0x71B8, symBinAddr: 0x100009FAC, symSize: 0x28 }
  - { offsetInCU: 0x1DCF0, offset: 0x1DCF0, size: 0x8, addend: 0x0, symName: __ZNKSt3__119__map_value_compareINS_12basic_stringIcNS_11char_traitsIcEENS_9allocatorIcEEEENS_12__value_typeIS6_9TokenTypeEENS_4lessIS6_EELb1EEclB7v160006ERKS6_RKS9_, symObjAddr: 0x71E0, symBinAddr: 0x100009FD4, symSize: 0x50 }
  - { offsetInCU: 0x1DD34, offset: 0x1DD34, size: 0x8, addend: 0x0, symName: __ZNKSt3__121__tree_const_iteratorINS_12__value_typeINS_12basic_stringIcNS_11char_traitsIcEENS_9allocatorIcEEEE9TokenTypeEEPNS_11__tree_nodeIS9_PvEElEdeB7v160006Ev, symObjAddr: 0x7230, symBinAddr: 0x10000A024, symSize: 0x28 }
  - { offsetInCU: 0x1DD5A, offset: 0x1DD5A, size: 0x8, addend: 0x0, symName: __ZNKSt3__119__map_value_compareINS_12basic_stringIcNS_11char_traitsIcEENS_9allocatorIcEEEENS_12__value_typeIS6_9TokenTypeEENS_4lessIS6_EELb1EEclB7v160006ERKS9_RKS6_, symObjAddr: 0x7258, symBinAddr: 0x10000A04C, symSize: 0x48 }
  - { offsetInCU: 0x1DD9E, offset: 0x1DD9E, size: 0x8, addend: 0x0, symName: __ZNSt3__121__tree_const_iteratorINS_12__value_typeINS_12basic_stringIcNS_11char_traitsIcEENS_9allocatorIcEEEE9TokenTypeEEPNS_11__tree_nodeIS9_PvEElEC1B7v160006EPNS_15__tree_end_nodeIPNS_16__tree_node_baseISB_EEEE, symObjAddr: 0x72A0, symBinAddr: 0x10000A094, symSize: 0x34 }
  - { offsetInCU: 0x1DDD7, offset: 0x1DDD7, size: 0x8, addend: 0x0, symName: __ZNKSt3__14lessINS_12basic_stringIcNS_11char_traitsIcEENS_9allocatorIcEEEEEclB7v160006ERKS6_S9_, symObjAddr: 0x72D4, symBinAddr: 0x10000A0C8, symSize: 0x34 }
  - { offsetInCU: 0x1DE1B, offset: 0x1DE1B, size: 0x8, addend: 0x0, symName: __ZNKSt3__112__value_typeINS_12basic_stringIcNS_11char_traitsIcEENS_9allocatorIcEEEE9TokenTypeE11__get_valueB7v160006Ev, symObjAddr: 0x7308, symBinAddr: 0x10000A0FC, symSize: 0x24 }
  - { offsetInCU: 0x1DE41, offset: 0x1DE41, size: 0x8, addend: 0x0, symName: __ZNKSt3__112basic_stringIcNS_11char_traitsIcEENS_9allocatorIcEEE7compareB7v160006ERKS5_, symObjAddr: 0x7364, symBinAddr: 0x10000A158, symSize: 0x4C }
  - { offsetInCU: 0x1DE78, offset: 0x1DE78, size: 0x8, addend: 0x0, symName: __ZNKSt3__112basic_stringIcNS_11char_traitsIcEENS_9allocatorIcEEE7compareINS_17basic_string_viewIcS2_EEEENS_9enable_ifIXsr33__can_be_converted_to_string_viewIcS2_T_EE5valueEiE4typeERKSA_, symObjAddr: 0x73B0, symBinAddr: 0x10000A1A4, symSize: 0x12C }
  - { offsetInCU: 0x1DEF5, offset: 0x1DEF5, size: 0x8, addend: 0x0, symName: __ZNSt3__111char_traitsIcE7compareEPKcS3_m, symObjAddr: 0x74DC, symBinAddr: 0x10000A2D0, symSize: 0x6C }
  - { offsetInCU: 0x1DF34, offset: 0x1DF34, size: 0x8, addend: 0x0, symName: __ZNKSt3__112basic_stringIcNS_11char_traitsIcEENS_9allocatorIcEEE4dataB7v160006Ev, symObjAddr: 0x7548, symBinAddr: 0x10000A33C, symSize: 0x28 }
  - { offsetInCU: 0x1DF5A, offset: 0x1DF5A, size: 0x8, addend: 0x0, symName: __ZNKSt3__112basic_stringIcNS_11char_traitsIcEENS_9allocatorIcEEE13__get_pointerB7v160006Ev, symObjAddr: 0x75B8, symBinAddr: 0x10000A3AC, symSize: 0x54 }
  - { offsetInCU: 0x1DF80, offset: 0x1DF80, size: 0x8, addend: 0x0, symName: __ZNKSt3__112basic_stringIcNS_11char_traitsIcEENS_9allocatorIcEEE18__get_long_pointerB7v160006Ev, symObjAddr: 0x760C, symBinAddr: 0x10000A400, symSize: 0x28 }
  - { offsetInCU: 0x1DFA6, offset: 0x1DFA6, size: 0x8, addend: 0x0, symName: __ZNKSt3__112basic_stringIcNS_11char_traitsIcEENS_9allocatorIcEEE19__get_short_pointerB7v160006Ev, symObjAddr: 0x7634, symBinAddr: 0x10000A428, symSize: 0x28 }
  - { offsetInCU: 0x1DFCC, offset: 0x1DFCC, size: 0x8, addend: 0x0, symName: __ZNSt3__114pointer_traitsIPKcE10pointer_toB7v160006ERS1_, symObjAddr: 0x765C, symBinAddr: 0x10000A450, symSize: 0x14 }
  - { offsetInCU: 0x1DFEF, offset: 0x1DFEF, size: 0x8, addend: 0x0, symName: __ZNSt3__121__tree_const_iteratorINS_12__value_typeINS_12basic_stringIcNS_11char_traitsIcEENS_9allocatorIcEEEE9TokenTypeEEPNS_11__tree_nodeIS9_PvEElEC2B7v160006EPNS_15__tree_end_nodeIPNS_16__tree_node_baseISB_EEEE, symObjAddr: 0x76A8, symBinAddr: 0x10000A49C, symSize: 0x20 }
  - { offsetInCU: 0x1E028, offset: 0x1E028, size: 0x8, addend: 0x0, symName: __ZNSt3__114pointer_traitsIPNS_15__tree_end_nodeIPNS_16__tree_node_baseIPvEEEEE10pointer_toB7v160006ERS6_, symObjAddr: 0x76C8, symBinAddr: 0x10000A4BC, symSize: 0x14 }
  - { offsetInCU: 0x1E04B, offset: 0x1E04B, size: 0x8, addend: 0x0, symName: __ZNKSt3__117__compressed_pairINS_15__tree_end_nodeIPNS_16__tree_node_baseIPvEEEENS_9allocatorINS_11__tree_nodeINS_12__value_typeINS_12basic_stringIcNS_11char_traitsIcEENS7_IcEEEE9TokenTypeEES3_EEEEE5firstB7v160006Ev, symObjAddr: 0x76DC, symBinAddr: 0x10000A4D0, symSize: 0x24 }
  - { offsetInCU: 0x1E071, offset: 0x1E071, size: 0x8, addend: 0x0, symName: __ZNKSt3__122__compressed_pair_elemINS_15__tree_end_nodeIPNS_16__tree_node_baseIPvEEEELi0ELb0EE5__getB7v160006Ev, symObjAddr: 0x7700, symBinAddr: 0x10000A4F4, symSize: 0x14 }
  - { offsetInCU: 0x1E097, offset: 0x1E097, size: 0x8, addend: 0x0, symName: __ZNKSt3__117__compressed_pairImNS_19__map_value_compareINS_12basic_stringIcNS_11char_traitsIcEENS_9allocatorIcEEEENS_12__value_typeIS7_9TokenTypeEENS_4lessIS7_EELb1EEEE6secondB7v160006Ev, symObjAddr: 0x7744, symBinAddr: 0x10000A538, symSize: 0x24 }
  - { offsetInCU: 0x1E0BD, offset: 0x1E0BD, size: 0x8, addend: 0x0, symName: __ZNKSt3__122__compressed_pair_elemINS_19__map_value_compareINS_12basic_stringIcNS_11char_traitsIcEENS_9allocatorIcEEEENS_12__value_typeIS7_9TokenTypeEENS_4lessIS7_EELb1EEELi1ELb1EE5__getB7v160006Ev, symObjAddr: 0x7768, symBinAddr: 0x10000A55C, symSize: 0x14 }
  - { offsetInCU: 0x1E0E3, offset: 0x1E0E3, size: 0x8, addend: 0x0, symName: __ZNKSt3__121__tree_const_iteratorINS_12__value_typeINS_12basic_stringIcNS_11char_traitsIcEENS_9allocatorIcEEEE9TokenTypeEEPNS_11__tree_nodeIS9_PvEElE8__get_npB7v160006Ev, symObjAddr: 0x777C, symBinAddr: 0x10000A570, symSize: 0x18 }
  - { offsetInCU: 0x1E109, offset: 0x1E109, size: 0x8, addend: 0x0, symName: __ZNSt3__120__map_const_iteratorINS_21__tree_const_iteratorINS_12__value_typeINS_12basic_stringIcNS_11char_traitsIcEENS_9allocatorIcEEEE9TokenTypeEEPNS_11__tree_nodeISA_PvEElEEEC2B7v160006ESF_, symObjAddr: 0x7794, symBinAddr: 0x10000A588, symSize: 0x20 }
  - { offsetInCU: 0x1E142, offset: 0x1E142, size: 0x8, addend: 0x0, symName: __ZNSt3__114pointer_traitsIPKNS_4pairIKNS_12basic_stringIcNS_11char_traitsIcEENS_9allocatorIcEEEE9TokenTypeEEE10pointer_toB7v160006ERSB_, symObjAddr: 0x77B4, symBinAddr: 0x10000A5A8, symSize: 0x14 }
  - { offsetInCU: 0x1E165, offset: 0x1E165, size: 0x8, addend: 0x0, symName: __ZNKSt3__121__tree_const_iteratorINS_12__value_typeINS_12basic_stringIcNS_11char_traitsIcEENS_9allocatorIcEEEE9TokenTypeEEPNS_11__tree_nodeIS9_PvEElEptB7v160006Ev, symObjAddr: 0x77C8, symBinAddr: 0x10000A5BC, symSize: 0x2C }
  - { offsetInCU: 0x1E18B, offset: 0x1E18B, size: 0x8, addend: 0x0, symName: __ZNSt3__114pointer_traitsIPKNS_12__value_typeINS_12basic_stringIcNS_11char_traitsIcEENS_9allocatorIcEEEE9TokenTypeEEE10pointer_toB7v160006ERSA_, symObjAddr: 0x77F4, symBinAddr: 0x10000A5E8, symSize: 0x14 }
  - { offsetInCU: 0x1E1AE, offset: 0x1E1AE, size: 0x8, addend: 0x0, symName: __ZNSt3__16vectorI5TokenNS_9allocatorIS1_EEE22__construct_one_at_endB7v160006IJ9TokenTypeRA1_KcDnRiEEEvDpOT_, symObjAddr: 0x7808, symBinAddr: 0x10000A5FC, symSize: 0xA8 }
  - { offsetInCU: 0x1E239, offset: 0x1E239, size: 0x8, addend: 0x0, symName: __ZNSt3__16vectorI5TokenNS_9allocatorIS1_EEE24__emplace_back_slow_pathIJ9TokenTypeRA1_KcDnRiEEEvDpOT_, symObjAddr: 0x78B0, symBinAddr: 0x10000A6A4, symSize: 0xF0 }
  - { offsetInCU: 0x1E2D5, offset: 0x1E2D5, size: 0x8, addend: 0x0, symName: __ZNSt3__116allocator_traitsINS_9allocatorI5TokenEEE9constructB7v160006IS2_J9TokenTypeRA1_KcDnRiEvEEvRS3_PT_DpOT0_, symObjAddr: 0x79A0, symBinAddr: 0x10000A794, symSize: 0x4C }
  - { offsetInCU: 0x1E368, offset: 0x1E368, size: 0x8, addend: 0x0, symName: __ZNSt3__19allocatorI5TokenE9constructB7v160006IS1_J9TokenTypeRA1_KcDnRiEEEvPT_DpOT0_, symObjAddr: 0x79EC, symBinAddr: 0x10000A7E0, symSize: 0x100 }
  - { offsetInCU: 0x1E3F9, offset: 0x1E3F9, size: 0x8, addend: 0x0, symName: __ZNSt3__16vectorI5TokenNS_9allocatorIS1_EEEC2ERKS4_, symObjAddr: 0x7AEC, symBinAddr: 0x10000A8E0, symSize: 0x110 }
  - { offsetInCU: 0x1E458, offset: 0x1E458, size: 0x8, addend: 0x0, symName: __ZNSt3__116allocator_traitsINS_9allocatorI5TokenEEE37select_on_container_copy_constructionB7v160006IS3_vvEES3_RKS3_, symObjAddr: 0x7BFC, symBinAddr: 0x10000A9F0, symSize: 0x10 }
  - { offsetInCU: 0x1E48D, offset: 0x1E48D, size: 0x8, addend: 0x0, symName: __ZNSt3__117__compressed_pairIP5TokenNS_9allocatorIS1_EEEC1B7v160006IDnS4_EEOT_OT0_, symObjAddr: 0x7C0C, symBinAddr: 0x10000AA00, symSize: 0x3C }
  - { offsetInCU: 0x1E4E5, offset: 0x1E4E5, size: 0x8, addend: 0x0, symName: __ZNSt3__16vectorI5TokenNS_9allocatorIS1_EEE16__destroy_vectorC1ERS4_, symObjAddr: 0x7C88, symBinAddr: 0x10000AA7C, symSize: 0x34 }
  - { offsetInCU: 0x1E51E, offset: 0x1E51E, size: 0x8, addend: 0x0, symName: __ZNSt3__16vectorI5TokenNS_9allocatorIS1_EEE11__vallocateB7v160006Em, symObjAddr: 0x7CBC, symBinAddr: 0x10000AAB0, symSize: 0xB4 }
  - { offsetInCU: 0x1E562, offset: 0x1E562, size: 0x8, addend: 0x0, symName: __ZNSt3__16vectorI5TokenNS_9allocatorIS1_EEE18__construct_at_endIPS1_Li0EEEvT_S7_m, symObjAddr: 0x7D70, symBinAddr: 0x10000AB64, symSize: 0x8C }
  - { offsetInCU: 0x1E5D5, offset: 0x1E5D5, size: 0x8, addend: 0x0, symName: __ZNSt3__128__exception_guard_exceptionsINS_6vectorI5TokenNS_9allocatorIS2_EEE16__destroy_vectorEE10__completeB7v160006Ev, symObjAddr: 0x7DFC, symBinAddr: 0x10000ABF0, symSize: 0x1C }
  - { offsetInCU: 0x1E5FB, offset: 0x1E5FB, size: 0x8, addend: 0x0, symName: __ZNSt3__128__exception_guard_exceptionsINS_6vectorI5TokenNS_9allocatorIS2_EEE16__destroy_vectorEED1B7v160006Ev, symObjAddr: 0x7E18, symBinAddr: 0x10000AC0C, symSize: 0x2C }
  - { offsetInCU: 0x1E625, offset: 0x1E625, size: 0x8, addend: 0x0, symName: __ZNSt3__117__compressed_pairIP5TokenNS_9allocatorIS1_EEEC2B7v160006IDnS4_EEOT_OT0_, symObjAddr: 0x7E44, symBinAddr: 0x10000AC38, symSize: 0x44 }
  - { offsetInCU: 0x1E67D, offset: 0x1E67D, size: 0x8, addend: 0x0, symName: __ZNSt3__122__compressed_pair_elemINS_9allocatorI5TokenEELi1ELb1EEC2B7v160006IS3_vEEOT_, symObjAddr: 0x7E88, symBinAddr: 0x10000AC7C, symSize: 0x18 }
  - { offsetInCU: 0x1E6BF, offset: 0x1E6BF, size: 0x8, addend: 0x0, symName: __ZNSt3__128__exception_guard_exceptionsINS_6vectorI5TokenNS_9allocatorIS2_EEE16__destroy_vectorEEC1B7v160006ES6_, symObjAddr: 0x7EA0, symBinAddr: 0x10000AC94, symSize: 0x34 }
  - { offsetInCU: 0x1E6F7, offset: 0x1E6F7, size: 0x8, addend: 0x0, symName: __ZNSt3__128__exception_guard_exceptionsINS_6vectorI5TokenNS_9allocatorIS2_EEE16__destroy_vectorEEC2B7v160006ES6_, symObjAddr: 0x7ED4, symBinAddr: 0x10000ACC8, symSize: 0x24 }
  - { offsetInCU: 0x1E72F, offset: 0x1E72F, size: 0x8, addend: 0x0, symName: __ZNSt3__16vectorI5TokenNS_9allocatorIS1_EEE16__destroy_vectorC2ERS4_, symObjAddr: 0x7EF8, symBinAddr: 0x10000ACEC, symSize: 0x20 }
  - { offsetInCU: 0x1E768, offset: 0x1E768, size: 0x8, addend: 0x0, symName: __ZNSt3__129_AllocatorDestroyRangeReverseINS_9allocatorI5TokenEEPS2_EC1B7v160006ERS3_RS4_S7_, symObjAddr: 0x8058, symBinAddr: 0x10000AE4C, symSize: 0x44 }
  - { offsetInCU: 0x1E7BF, offset: 0x1E7BF, size: 0x8, addend: 0x0, symName: __ZNSt3__116allocator_traitsINS_9allocatorI5TokenEEE9constructB7v160006IS2_JRS2_EvEEvRS3_PT_DpOT0_, symObjAddr: 0x809C, symBinAddr: 0x10000AE90, symSize: 0x34 }
  - { offsetInCU: 0x1E816, offset: 0x1E816, size: 0x8, addend: 0x0, symName: __ZNSt3__128__exception_guard_exceptionsINS_29_AllocatorDestroyRangeReverseINS_9allocatorI5TokenEEPS3_EEE10__completeB7v160006Ev, symObjAddr: 0x80D0, symBinAddr: 0x10000AEC4, symSize: 0x1C }
  - { offsetInCU: 0x1E83C, offset: 0x1E83C, size: 0x8, addend: 0x0, symName: __ZNSt3__128__exception_guard_exceptionsINS_29_AllocatorDestroyRangeReverseINS_9allocatorI5TokenEEPS3_EEED1B7v160006Ev, symObjAddr: 0x80EC, symBinAddr: 0x10000AEE0, symSize: 0x2C }
  - { offsetInCU: 0x1E866, offset: 0x1E866, size: 0x8, addend: 0x0, symName: __ZNSt3__128__exception_guard_exceptionsINS_29_AllocatorDestroyRangeReverseINS_9allocatorI5TokenEEPS3_EEEC1B7v160006ES6_, symObjAddr: 0x8118, symBinAddr: 0x10000AF0C, symSize: 0x34 }
  - { offsetInCU: 0x1E89F, offset: 0x1E89F, size: 0x8, addend: 0x0, symName: __ZNSt3__128__exception_guard_exceptionsINS_29_AllocatorDestroyRangeReverseINS_9allocatorI5TokenEEPS3_EEEC2B7v160006ES6_, symObjAddr: 0x814C, symBinAddr: 0x10000AF40, symSize: 0x30 }
  - { offsetInCU: 0x1E8D8, offset: 0x1E8D8, size: 0x8, addend: 0x0, symName: __ZNSt3__129_AllocatorDestroyRangeReverseINS_9allocatorI5TokenEEPS2_EC2B7v160006ERS3_RS4_S7_, symObjAddr: 0x817C, symBinAddr: 0x10000AF70, symSize: 0x38 }
  - { offsetInCU: 0x1E92F, offset: 0x1E92F, size: 0x8, addend: 0x0, symName: __ZNSt3__19allocatorI5TokenE9constructB7v160006IS1_JRS1_EEEvPT_DpOT0_, symObjAddr: 0x81B4, symBinAddr: 0x10000AFA8, symSize: 0x30 }
  - { offsetInCU: 0x1E985, offset: 0x1E985, size: 0x8, addend: 0x0, symName: __ZNSt3__128__exception_guard_exceptionsINS_29_AllocatorDestroyRangeReverseINS_9allocatorI5TokenEEPS3_EEED2B7v160006Ev, symObjAddr: 0x81E4, symBinAddr: 0x10000AFD8, symSize: 0x50 }
  - { offsetInCU: 0x1E9AF, offset: 0x1E9AF, size: 0x8, addend: 0x0, symName: __ZNKSt3__129_AllocatorDestroyRangeReverseINS_9allocatorI5TokenEEPS2_EclB7v160006Ev, symObjAddr: 0x8234, symBinAddr: 0x10000B028, symSize: 0x68 }
  - { offsetInCU: 0x1E9D5, offset: 0x1E9D5, size: 0x8, addend: 0x0, symName: __ZNSt3__128__exception_guard_exceptionsINS_6vectorI5TokenNS_9allocatorIS2_EEE16__destroy_vectorEED2B7v160006Ev, symObjAddr: 0x830C, symBinAddr: 0x10000B100, symSize: 0x50 }
  - { offsetInCU: 0x1E9FF, offset: 0x1E9FF, size: 0x8, addend: 0x0, symName: __ZNSt3__16vectorI5TokenNS_9allocatorIS1_EEE16__destroy_vectorclB7v160006Ev, symObjAddr: 0x835C, symBinAddr: 0x10000B150, symSize: 0x9C }
  - { offsetInCU: 0x1EA25, offset: 0x1EA25, size: 0x8, addend: 0x0, symName: __ZNSt3__16vectorI5TokenNS_9allocatorIS1_EEE7__clearB7v160006Ev, symObjAddr: 0x8408, symBinAddr: 0x10000B1FC, symSize: 0x28 }
  - { offsetInCU: 0x1EA4B, offset: 0x1EA4B, size: 0x8, addend: 0x0, symName: __ZNSt3__16vectorI5TokenNS_9allocatorIS1_EEE22__base_destruct_at_endB7v160006EPS1_, symObjAddr: 0x8430, symBinAddr: 0x10000B224, symSize: 0x8C }
  - { offsetInCU: 0x1EA8F, offset: 0x1EA8F, size: 0x8, addend: 0x0, symName: __ZNKSt3__111__wrap_iterIP5TokenE4baseB7v160006Ev, symObjAddr: 0x8504, symBinAddr: 0x10000B2F8, symSize: 0x18 }
  - { offsetInCU: 0x1EAB5, offset: 0x1EAB5, size: 0x8, addend: 0x0, symName: __ZNSt3__112basic_stringIcNS_11char_traitsIcEENS_9allocatorIcEEEaSB7v160006EOS5_, symObjAddr: 0x8570, symBinAddr: 0x10000B364, symSize: 0x34 }
  - { offsetInCU: 0x1EAEA, offset: 0x1EAEA, size: 0x8, addend: 0x0, symName: __ZNSt3__112basic_stringIcNS_11char_traitsIcEENS_9allocatorIcEEEaSB7v160006EPKc, symObjAddr: 0x85EC, symBinAddr: 0x10000B3E0, symSize: 0x2C }
  - { offsetInCU: 0x1EB47, offset: 0x1EB47, size: 0x8, addend: 0x0, symName: __ZNSt12bad_any_castC1Ev, symObjAddr: 0x87BC, symBinAddr: 0x10000B5B0, symSize: 0x2C }
  - { offsetInCU: 0x1EB73, offset: 0x1EB73, size: 0x8, addend: 0x0, symName: __ZNSt12bad_any_castD1Ev, symObjAddr: 0x87E8, symBinAddr: 0x10000B5DC, symSize: 0x2C }
  - { offsetInCU: 0x1EB9F, offset: 0x1EB9F, size: 0x8, addend: 0x0, symName: __ZNSt12bad_any_castC2Ev, symObjAddr: 0x8814, symBinAddr: 0x10000B608, symSize: 0x44 }
  - { offsetInCU: 0x1EBCB, offset: 0x1EBCB, size: 0x8, addend: 0x0, symName: __ZNSt12bad_any_castD2Ev, symObjAddr: 0x8858, symBinAddr: 0x10000B64C, symSize: 0x2C }
  - { offsetInCU: 0x1EBF7, offset: 0x1EBF7, size: 0x8, addend: 0x0, symName: __ZNSt3__112basic_stringIcNS_11char_traitsIcEENS_9allocatorIcEEE13__move_assignB7v160006ERS5_NS_17integral_constantIbLb1EEE, symObjAddr: 0x8884, symBinAddr: 0x10000B678, symSize: 0xC8 }
  - { offsetInCU: 0x1EC39, offset: 0x1EC39, size: 0x8, addend: 0x0, symName: __ZNSt3__116allocator_traitsINS_9allocatorIcEEE10deallocateB7v160006ERS2_Pcm, symObjAddr: 0x894C, symBinAddr: 0x10000B740, symSize: 0x34 }
  - { offsetInCU: 0x1EC7B, offset: 0x1EC7B, size: 0x8, addend: 0x0, symName: __ZNSt3__112basic_stringIcNS_11char_traitsIcEENS_9allocatorIcEEE7__allocB7v160006Ev, symObjAddr: 0x8980, symBinAddr: 0x10000B774, symSize: 0x24 }
  - { offsetInCU: 0x1ECA1, offset: 0x1ECA1, size: 0x8, addend: 0x0, symName: __ZNSt3__112basic_stringIcNS_11char_traitsIcEENS_9allocatorIcEEE18__get_long_pointerB7v160006Ev, symObjAddr: 0x89A4, symBinAddr: 0x10000B798, symSize: 0x28 }
  - { offsetInCU: 0x1ECC7, offset: 0x1ECC7, size: 0x8, addend: 0x0, symName: __ZNKSt3__112basic_stringIcNS_11char_traitsIcEENS_9allocatorIcEEE14__get_long_capB7v160006Ev, symObjAddr: 0x89CC, symBinAddr: 0x10000B7C0, symSize: 0x30 }
  - { offsetInCU: 0x1ECED, offset: 0x1ECED, size: 0x8, addend: 0x0, symName: __ZNSt3__112basic_stringIcNS_11char_traitsIcEENS_9allocatorIcEEE19__move_assign_allocB7v160006ERS5_, symObjAddr: 0x89FC, symBinAddr: 0x10000B7F0, symSize: 0x2C }
  - { offsetInCU: 0x1ED22, offset: 0x1ED22, size: 0x8, addend: 0x0, symName: __ZNSt3__112basic_stringIcNS_11char_traitsIcEENS_9allocatorIcEEE16__set_short_sizeB7v160006Em, symObjAddr: 0x8A28, symBinAddr: 0x10000B81C, symSize: 0x78 }
  - { offsetInCU: 0x1ED57, offset: 0x1ED57, size: 0x8, addend: 0x0, symName: __ZNSt3__111char_traitsIcE6assignERcRKc, symObjAddr: 0x8AA0, symBinAddr: 0x10000B894, symSize: 0x24 }
  - { offsetInCU: 0x1ED88, offset: 0x1ED88, size: 0x8, addend: 0x0, symName: __ZNSt3__112basic_stringIcNS_11char_traitsIcEENS_9allocatorIcEEE19__get_short_pointerB7v160006Ev, symObjAddr: 0x8AC4, symBinAddr: 0x10000B8B8, symSize: 0x28 }
  - { offsetInCU: 0x1EDAE, offset: 0x1EDAE, size: 0x8, addend: 0x0, symName: __ZNSt3__19allocatorIcE10deallocateB7v160006EPcm, symObjAddr: 0x8AEC, symBinAddr: 0x10000B8E0, symSize: 0x40 }
  - { offsetInCU: 0x1EDF0, offset: 0x1EDF0, size: 0x8, addend: 0x0, symName: __ZNSt3__117__compressed_pairINS_12basic_stringIcNS_11char_traitsIcEENS_9allocatorIcEEE5__repES5_E6secondB7v160006Ev, symObjAddr: 0x8B2C, symBinAddr: 0x10000B920, symSize: 0x24 }
  - { offsetInCU: 0x1EE16, offset: 0x1EE16, size: 0x8, addend: 0x0, symName: __ZNSt3__122__compressed_pair_elemINS_9allocatorIcEELi1ELb1EE5__getB7v160006Ev, symObjAddr: 0x8B50, symBinAddr: 0x10000B944, symSize: 0x14 }
  - { offsetInCU: 0x1EE3C, offset: 0x1EE3C, size: 0x8, addend: 0x0, symName: __ZNSt3__112basic_stringIcNS_11char_traitsIcEENS_9allocatorIcEEE19__move_assign_allocB7v160006ERS5_NS_17integral_constantIbLb1EEE, symObjAddr: 0x8B64, symBinAddr: 0x10000B958, symSize: 0x38 }
  - { offsetInCU: 0x1EE7C, offset: 0x1EE7C, size: 0x8, addend: 0x0, symName: __ZNSt3__114pointer_traitsIPcE10pointer_toB7v160006ERc, symObjAddr: 0x8B9C, symBinAddr: 0x10000B990, symSize: 0x14 }
  - { offsetInCU: 0x1EE9F, offset: 0x1EE9F, size: 0x8, addend: 0x0, symName: __ZNSt3__112basic_stringIcNS_11char_traitsIcEENS_9allocatorIcEEE6appendB7v160006ERKS5_, symObjAddr: 0x8C9C, symBinAddr: 0x10000BA90, symSize: 0x4C }
  - { offsetInCU: 0x1EED4, offset: 0x1EED4, size: 0x8, addend: 0x0, symName: __ZN7ScannerD2Ev, symObjAddr: 0x8CE8, symBinAddr: 0x10000BADC, symSize: 0x30 }
  - { offsetInCU: 0x1EF00, offset: 0x1EF00, size: 0x8, addend: 0x0, symName: __ZNSt3__112basic_stringIcNS_11char_traitsIcEENS_9allocatorIcEEEC2B7v160006Ev, symObjAddr: 0x8D18, symBinAddr: 0x10000BB0C, symSize: 0x4C }
  - { offsetInCU: 0x1EF2A, offset: 0x1EF2A, size: 0x8, addend: 0x0, symName: __ZNSt3__112basic_stringIcNS_11char_traitsIcEENS_9allocatorIcEEE13__get_pointerB7v160006Ev, symObjAddr: 0x8D78, symBinAddr: 0x10000BB6C, symSize: 0x54 }
  - { offsetInCU: 0x1EF50, offset: 0x1EF50, size: 0x8, addend: 0x0, symName: __ZNSt3__112basic_stringIcNS_11char_traitsIcEENS_9allocatorIcEEEC2B7v160006IDnEEPKc, symObjAddr: 0x8DCC, symBinAddr: 0x10000BBC0, symSize: 0x60 }
  - { offsetInCU: 0x1EF8E, offset: 0x1EF8E, size: 0x8, addend: 0x0, symName: __ZNSt3__19basic_iosIcNS_11char_traitsIcEEEC2B7v160006Ev, symObjAddr: 0x8E2C, symBinAddr: 0x10000BC20, symSize: 0x44 }
  - { offsetInCU: 0x1EFB8, offset: 0x1EFB8, size: 0x8, addend: 0x0, symName: __ZNSt3__113basic_istreamIcNS_11char_traitsIcEEEC2B7v160006EPNS_15basic_streambufIcS2_EE, symObjAddr: 0x8E70, symBinAddr: 0x10000BC64, symSize: 0x64 }
  - { offsetInCU: 0x1EFFD, offset: 0x1EFFD, size: 0x8, addend: 0x0, symName: __ZNSt3__18ios_baseC2B7v160006Ev, symObjAddr: 0x8ED4, symBinAddr: 0x10000BCC8, symSize: 0x24 }
  - { offsetInCU: 0x1F027, offset: 0x1F027, size: 0x8, addend: 0x0, symName: __ZNSt3__19basic_iosIcNS_11char_traitsIcEEE4initB7v160006EPNS_15basic_streambufIcS2_EE, symObjAddr: 0x8EF8, symBinAddr: 0x10000BCEC, symSize: 0x44 }
  - { offsetInCU: 0x1F05E, offset: 0x1F05E, size: 0x8, addend: 0x0, symName: __ZNKSt3__19basic_iosIcNS_11char_traitsIcEEE4failB7v160006Ev, symObjAddr: 0x8F3C, symBinAddr: 0x10000BD30, symSize: 0x28 }
  - { offsetInCU: 0x1F084, offset: 0x1F084, size: 0x8, addend: 0x0, symName: __ZNKSt3__18ios_base4failB7v160006Ev, symObjAddr: 0x8F64, symBinAddr: 0x10000BD58, symSize: 0x28 }
  - { offsetInCU: 0x1F0AC, offset: 0x1F0AC, size: 0x8, addend: 0x0, symName: __ZNKSt3__112basic_stringIcNS_11char_traitsIcEENS_9allocatorIcEEE15__get_long_sizeB7v160006Ev, symObjAddr: 0x8F8C, symBinAddr: 0x10000BD80, symSize: 0x28 }
  - { offsetInCU: 0x1F0D2, offset: 0x1F0D2, size: 0x8, addend: 0x0, symName: __ZNKSt3__112basic_stringIcNS_11char_traitsIcEENS_9allocatorIcEEE16__get_short_sizeB7v160006Ev, symObjAddr: 0x8FB4, symBinAddr: 0x10000BDA8, symSize: 0x34 }
  - { offsetInCU: 0x1F0F8, offset: 0x1F0F8, size: 0x8, addend: 0x0, symName: __ZNSt3__16vectorI5TokenNS_9allocatorIS1_EEED2B7v160006Ev, symObjAddr: 0x8FE8, symBinAddr: 0x10000BDDC, symSize: 0x44 }
  - { offsetInCU: 0x1F122, offset: 0x1F122, size: 0x8, addend: 0x0, symName: __ZNSt3__13mapINS_12basic_stringIcNS_11char_traitsIcEENS_9allocatorIcEEEE9TokenTypeNS_4lessIS6_EENS4_INS_4pairIKS6_S7_EEEEEC2B7v160006ESt16initializer_listISC_ERKS9_, symObjAddr: 0x902C, symBinAddr: 0x10000BE20, symSize: 0xA4 }
  - { offsetInCU: 0x1F16A, offset: 0x1F16A, size: 0x8, addend: 0x0, symName: __ZNSt3__119__map_value_compareINS_12basic_stringIcNS_11char_traitsIcEENS_9allocatorIcEEEENS_12__value_typeIS6_9TokenTypeEENS_4lessIS6_EELb1EEC1B7v160006ESB_, symObjAddr: 0x90D0, symBinAddr: 0x10000BEC4, symSize: 0x2C }
  - { offsetInCU: 0x1F1A3, offset: 0x1F1A3, size: 0x8, addend: 0x0, symName: __ZNSt3__16__treeINS_12__value_typeINS_12basic_stringIcNS_11char_traitsIcEENS_9allocatorIcEEEE9TokenTypeEENS_19__map_value_compareIS7_S9_NS_4lessIS7_EELb1EEENS5_IS9_EEEC1ERKSD_, symObjAddr: 0x90FC, symBinAddr: 0x10000BEF0, symSize: 0x34 }
  - { offsetInCU: 0x1F1DE, offset: 0x1F1DE, size: 0x8, addend: 0x0, symName: __ZNSt3__13mapINS_12basic_stringIcNS_11char_traitsIcEENS_9allocatorIcEEEE9TokenTypeNS_4lessIS6_EENS4_INS_4pairIKS6_S7_EEEEE6insertB7v160006IPKSC_EEvT_SI_, symObjAddr: 0x9130, symBinAddr: 0x10000BF24, symSize: 0x8C }
  - { offsetInCU: 0x1F248, offset: 0x1F248, size: 0x8, addend: 0x0, symName: __ZNKSt16initializer_listINSt3__14pairIKNS0_12basic_stringIcNS0_11char_traitsIcEENS0_9allocatorIcEEEE9TokenTypeEEE5beginB7v160006Ev, symObjAddr: 0x91BC, symBinAddr: 0x10000BFB0, symSize: 0x18 }
  - { offsetInCU: 0x1F26E, offset: 0x1F26E, size: 0x8, addend: 0x0, symName: __ZNKSt16initializer_listINSt3__14pairIKNS0_12basic_stringIcNS0_11char_traitsIcEENS0_9allocatorIcEEEE9TokenTypeEEE3endB7v160006Ev, symObjAddr: 0x91D4, symBinAddr: 0x10000BFC8, symSize: 0x20 }
  - { offsetInCU: 0x1F294, offset: 0x1F294, size: 0x8, addend: 0x0, symName: __ZNSt3__16__treeINS_12__value_typeINS_12basic_stringIcNS_11char_traitsIcEENS_9allocatorIcEEEE9TokenTypeEENS_19__map_value_compareIS7_S9_NS_4lessIS7_EELb1EEENS5_IS9_EEED1Ev, symObjAddr: 0x91F4, symBinAddr: 0x10000BFE8, symSize: 0x2C }
  - { offsetInCU: 0x1F2C0, offset: 0x1F2C0, size: 0x8, addend: 0x0, symName: __ZNSt3__119__map_value_compareINS_12basic_stringIcNS_11char_traitsIcEENS_9allocatorIcEEEENS_12__value_typeIS6_9TokenTypeEENS_4lessIS6_EELb1EEC2B7v160006ESB_, symObjAddr: 0x9220, symBinAddr: 0x10000C014, symSize: 0x14 }
  - { offsetInCU: 0x1F2F9, offset: 0x1F2F9, size: 0x8, addend: 0x0, symName: __ZNSt3__16__treeINS_12__value_typeINS_12basic_stringIcNS_11char_traitsIcEENS_9allocatorIcEEEE9TokenTypeEENS_19__map_value_compareIS7_S9_NS_4lessIS7_EELb1EEENS5_IS9_EEEC2ERKSD_, symObjAddr: 0x9234, symBinAddr: 0x10000C028, symSize: 0x7C }
  - { offsetInCU: 0x1F334, offset: 0x1F334, size: 0x8, addend: 0x0, symName: __ZNSt3__117__compressed_pairINS_15__tree_end_nodeIPNS_16__tree_node_baseIPvEEEENS_9allocatorINS_11__tree_nodeINS_12__value_typeINS_12basic_stringIcNS_11char_traitsIcEENS7_IcEEEE9TokenTypeEES3_EEEEEC1B7v160006ILb1EvEEv, symObjAddr: 0x92B0, symBinAddr: 0x10000C0A4, symSize: 0x2C }
  - { offsetInCU: 0x1F36F, offset: 0x1F36F, size: 0x8, addend: 0x0, symName: __ZNSt3__117__compressed_pairImNS_19__map_value_compareINS_12basic_stringIcNS_11char_traitsIcEENS_9allocatorIcEEEENS_12__value_typeIS7_9TokenTypeEENS_4lessIS7_EELb1EEEEC1B7v160006IiRKSD_EEOT_OT0_, symObjAddr: 0x92DC, symBinAddr: 0x10000C0D0, symSize: 0x3C }
  - { offsetInCU: 0x1F3C7, offset: 0x1F3C7, size: 0x8, addend: 0x0, symName: __ZNSt3__16__treeINS_12__value_typeINS_12basic_stringIcNS_11char_traitsIcEENS_9allocatorIcEEEE9TokenTypeEENS_19__map_value_compareIS7_S9_NS_4lessIS7_EELb1EEENS5_IS9_EEE10__end_nodeB7v160006Ev, symObjAddr: 0x9318, symBinAddr: 0x10000C10C, symSize: 0x2C }
  - { offsetInCU: 0x1F3ED, offset: 0x1F3ED, size: 0x8, addend: 0x0, symName: __ZNSt3__16__treeINS_12__value_typeINS_12basic_stringIcNS_11char_traitsIcEENS_9allocatorIcEEEE9TokenTypeEENS_19__map_value_compareIS7_S9_NS_4lessIS7_EELb1EEENS5_IS9_EEE12__begin_nodeB7v160006Ev, symObjAddr: 0x9344, symBinAddr: 0x10000C138, symSize: 0x14 }
  - { offsetInCU: 0x1F413, offset: 0x1F413, size: 0x8, addend: 0x0, symName: __ZNSt3__117__compressed_pairINS_15__tree_end_nodeIPNS_16__tree_node_baseIPvEEEENS_9allocatorINS_11__tree_nodeINS_12__value_typeINS_12basic_stringIcNS_11char_traitsIcEENS7_IcEEEE9TokenTypeEES3_EEEEEC2B7v160006ILb1EvEEv, symObjAddr: 0x9358, symBinAddr: 0x10000C14C, symSize: 0x34 }
  - { offsetInCU: 0x1F448, offset: 0x1F448, size: 0x8, addend: 0x0, symName: __ZNSt3__122__compressed_pair_elemINS_15__tree_end_nodeIPNS_16__tree_node_baseIPvEEEELi0ELb0EEC2B7v160006ENS_16__value_init_tagE, symObjAddr: 0x938C, symBinAddr: 0x10000C180, symSize: 0x2C }
  - { offsetInCU: 0x1F47D, offset: 0x1F47D, size: 0x8, addend: 0x0, symName: __ZNSt3__122__compressed_pair_elemINS_9allocatorINS_11__tree_nodeINS_12__value_typeINS_12basic_stringIcNS_11char_traitsIcEENS1_IcEEEE9TokenTypeEEPvEEEELi1ELb1EEC2B7v160006ENS_16__value_init_tagE, symObjAddr: 0x93B8, symBinAddr: 0x10000C1AC, symSize: 0x2C }
  - { offsetInCU: 0x1F4B2, offset: 0x1F4B2, size: 0x8, addend: 0x0, symName: __ZNSt3__115__tree_end_nodeIPNS_16__tree_node_baseIPvEEEC1B7v160006Ev, symObjAddr: 0x93E4, symBinAddr: 0x10000C1D8, symSize: 0x2C }
  - { offsetInCU: 0x1F4DC, offset: 0x1F4DC, size: 0x8, addend: 0x0, symName: __ZNSt3__115__tree_end_nodeIPNS_16__tree_node_baseIPvEEEC2B7v160006Ev, symObjAddr: 0x9410, symBinAddr: 0x10000C204, symSize: 0x18 }
  - { offsetInCU: 0x1F506, offset: 0x1F506, size: 0x8, addend: 0x0, symName: __ZNSt3__19allocatorINS_11__tree_nodeINS_12__value_typeINS_12basic_stringIcNS_11char_traitsIcEENS0_IcEEEE9TokenTypeEEPvEEEC2B7v160006Ev, symObjAddr: 0x9428, symBinAddr: 0x10000C21C, symSize: 0x2C }
  - { offsetInCU: 0x1F530, offset: 0x1F530, size: 0x8, addend: 0x0, symName: __ZNSt3__116__non_trivial_ifILb1ENS_9allocatorINS_11__tree_nodeINS_12__value_typeINS_12basic_stringIcNS_11char_traitsIcEENS1_IcEEEE9TokenTypeEEPvEEEEEC2B7v160006Ev, symObjAddr: 0x9454, symBinAddr: 0x10000C248, symSize: 0x14 }
  - { offsetInCU: 0x1F55A, offset: 0x1F55A, size: 0x8, addend: 0x0, symName: __ZNSt3__117__compressed_pairImNS_19__map_value_compareINS_12basic_stringIcNS_11char_traitsIcEENS_9allocatorIcEEEENS_12__value_typeIS7_9TokenTypeEENS_4lessIS7_EELb1EEEEC2B7v160006IiRKSD_EEOT_OT0_, symObjAddr: 0x9468, symBinAddr: 0x10000C25C, symSize: 0x44 }
  - { offsetInCU: 0x1F5B2, offset: 0x1F5B2, size: 0x8, addend: 0x0, symName: __ZNSt3__122__compressed_pair_elemImLi0ELb0EEC2B7v160006IivEEOT_, symObjAddr: 0x94AC, symBinAddr: 0x10000C2A0, symSize: 0x24 }
  - { offsetInCU: 0x1F5F4, offset: 0x1F5F4, size: 0x8, addend: 0x0, symName: __ZNSt3__122__compressed_pair_elemINS_19__map_value_compareINS_12basic_stringIcNS_11char_traitsIcEENS_9allocatorIcEEEENS_12__value_typeIS7_9TokenTypeEENS_4lessIS7_EELb1EEELi1ELb1EEC2B7v160006IRKSD_vEEOT_, symObjAddr: 0x94D0, symBinAddr: 0x10000C2C4, symSize: 0x18 }
  - { offsetInCU: 0x1F636, offset: 0x1F636, size: 0x8, addend: 0x0, symName: __ZNSt3__117__compressed_pairINS_15__tree_end_nodeIPNS_16__tree_node_baseIPvEEEENS_9allocatorINS_11__tree_nodeINS_12__value_typeINS_12basic_stringIcNS_11char_traitsIcEENS7_IcEEEE9TokenTypeEES3_EEEEE5firstB7v160006Ev, symObjAddr: 0x94E8, symBinAddr: 0x10000C2DC, symSize: 0x24 }
  - { offsetInCU: 0x1F65C, offset: 0x1F65C, size: 0x8, addend: 0x0, symName: __ZNSt3__122__compressed_pair_elemINS_15__tree_end_nodeIPNS_16__tree_node_baseIPvEEEELi0ELb0EE5__getB7v160006Ev, symObjAddr: 0x950C, symBinAddr: 0x10000C300, symSize: 0x14 }
  - { offsetInCU: 0x1F682, offset: 0x1F682, size: 0x8, addend: 0x0, symName: __ZNKSt3__13mapINS_12basic_stringIcNS_11char_traitsIcEENS_9allocatorIcEEEE9TokenTypeNS_4lessIS6_EENS4_INS_4pairIKS6_S7_EEEEE4cendB7v160006Ev, symObjAddr: 0x9520, symBinAddr: 0x10000C314, symSize: 0x2C }
  - { offsetInCU: 0x1F6A8, offset: 0x1F6A8, size: 0x8, addend: 0x0, symName: __ZNSt3__13mapINS_12basic_stringIcNS_11char_traitsIcEENS_9allocatorIcEEEE9TokenTypeNS_4lessIS6_EENS4_INS_4pairIKS6_S7_EEEEE6insertB7v160006ENS_20__map_const_iteratorINS_21__tree_const_iteratorINS_12__value_typeIS6_S7_EEPNS_11__tree_nodeISI_PvEElEEEERKSC_, symObjAddr: 0x954C, symBinAddr: 0x10000C340, symSize: 0x50 }
  - { offsetInCU: 0x1F6EC, offset: 0x1F6EC, size: 0x8, addend: 0x0, symName: __ZNSt3__16__treeINS_12__value_typeINS_12basic_stringIcNS_11char_traitsIcEENS_9allocatorIcEEEE9TokenTypeEENS_19__map_value_compareIS7_S9_NS_4lessIS7_EELb1EEENS5_IS9_EEE15__insert_uniqueB7v160006ENS_21__tree_const_iteratorIS9_PNS_11__tree_nodeIS9_PvEElEERKNS_4pairIKS7_S8_EE, symObjAddr: 0x959C, symBinAddr: 0x10000C390, symSize: 0x64 }
  - { offsetInCU: 0x1F730, offset: 0x1F730, size: 0x8, addend: 0x0, symName: __ZNSt3__114__map_iteratorINS_15__tree_iteratorINS_12__value_typeINS_12basic_stringIcNS_11char_traitsIcEENS_9allocatorIcEEEE9TokenTypeEEPNS_11__tree_nodeISA_PvEElEEEC1B7v160006ESF_, symObjAddr: 0x9600, symBinAddr: 0x10000C3F4, symSize: 0x34 }
  - { offsetInCU: 0x1F769, offset: 0x1F769, size: 0x8, addend: 0x0, symName: __ZNSt3__16__treeINS_12__value_typeINS_12basic_stringIcNS_11char_traitsIcEENS_9allocatorIcEEEE9TokenTypeEENS_19__map_value_compareIS7_S9_NS_4lessIS7_EELb1EEENS5_IS9_EEE30__emplace_hint_unique_key_argsIS7_JRKNS_4pairIKS7_S8_EEEEENSH_INS_15__tree_iteratorIS9_PNS_11__tree_nodeIS9_PvEElEEbEENS_21__tree_const_iteratorIS9_SQ_lEERKT_DpOT0_, symObjAddr: 0x9634, symBinAddr: 0x10000C428, symSize: 0x104 }
  - { offsetInCU: 0x1F835, offset: 0x1F835, size: 0x8, addend: 0x0, symName: __ZNSt3__122__tree_key_value_typesINS_12__value_typeINS_12basic_stringIcNS_11char_traitsIcEENS_9allocatorIcEEEE9TokenTypeEEE9__get_keyB7v160006IKNS_4pairIKS7_S8_EEEENS_9enable_ifIXsr17__is_same_uncvrefIT_SE_EE5valueERSD_E4typeERSH_, symObjAddr: 0x9738, symBinAddr: 0x10000C52C, symSize: 0x14 }
  - { offsetInCU: 0x1F862, offset: 0x1F862, size: 0x8, addend: 0x0, symName: __ZNSt3__16__treeINS_12__value_typeINS_12basic_stringIcNS_11char_traitsIcEENS_9allocatorIcEEEE9TokenTypeEENS_19__map_value_compareIS7_S9_NS_4lessIS7_EELb1EEENS5_IS9_EEE12__find_equalIS7_EERPNS_16__tree_node_baseIPvEENS_21__tree_const_iteratorIS9_PNS_11__tree_nodeIS9_SI_EElEERPNS_15__tree_end_nodeISK_EESL_RKT_, symObjAddr: 0x974C, symBinAddr: 0x10000C540, symSize: 0x304 }
  - { offsetInCU: 0x1F90B, offset: 0x1F90B, size: 0x8, addend: 0x0, symName: __ZNSt3__16__treeINS_12__value_typeINS_12basic_stringIcNS_11char_traitsIcEENS_9allocatorIcEEEE9TokenTypeEENS_19__map_value_compareIS7_S9_NS_4lessIS7_EELb1EEENS5_IS9_EEE16__construct_nodeIJRKNS_4pairIKS7_S8_EEEEENS_10unique_ptrINS_11__tree_nodeIS9_PvEENS_22__tree_node_destructorINS5_ISP_EEEEEEDpOT_, symObjAddr: 0x9A50, symBinAddr: 0x10000C844, symSize: 0x110 }
  - { offsetInCU: 0x1F96C, offset: 0x1F96C, size: 0x8, addend: 0x0, symName: __ZNSt3__16__treeINS_12__value_typeINS_12basic_stringIcNS_11char_traitsIcEENS_9allocatorIcEEEE9TokenTypeEENS_19__map_value_compareIS7_S9_NS_4lessIS7_EELb1EEENS5_IS9_EEE16__insert_node_atEPNS_15__tree_end_nodeIPNS_16__tree_node_baseIPvEEEERSK_SK_, symObjAddr: 0x9B60, symBinAddr: 0x10000C954, symSize: 0xCC }
  - { offsetInCU: 0x1F9C1, offset: 0x1F9C1, size: 0x8, addend: 0x0, symName: __ZNKSt3__110unique_ptrINS_11__tree_nodeINS_12__value_typeINS_12basic_stringIcNS_11char_traitsIcEENS_9allocatorIcEEEE9TokenTypeEEPvEENS_22__tree_node_destructorINS6_ISC_EEEEE3getB7v160006Ev, symObjAddr: 0x9C2C, symBinAddr: 0x10000CA20, symSize: 0x28 }
  - { offsetInCU: 0x1F9E7, offset: 0x1F9E7, size: 0x8, addend: 0x0, symName: __ZNSt3__110unique_ptrINS_11__tree_nodeINS_12__value_typeINS_12basic_stringIcNS_11char_traitsIcEENS_9allocatorIcEEEE9TokenTypeEEPvEENS_22__tree_node_destructorINS6_ISC_EEEEE7releaseB7v160006Ev, symObjAddr: 0x9C54, symBinAddr: 0x10000CA48, symSize: 0x44 }
  - { offsetInCU: 0x1FA1C, offset: 0x1FA1C, size: 0x8, addend: 0x0, symName: __ZNSt3__110unique_ptrINS_11__tree_nodeINS_12__value_typeINS_12basic_stringIcNS_11char_traitsIcEENS_9allocatorIcEEEE9TokenTypeEEPvEENS_22__tree_node_destructorINS6_ISC_EEEEED1B7v160006Ev, symObjAddr: 0x9C98, symBinAddr: 0x10000CA8C, symSize: 0x2C }
  - { offsetInCU: 0x1FA46, offset: 0x1FA46, size: 0x8, addend: 0x0, symName: __ZNSt3__115__tree_iteratorINS_12__value_typeINS_12basic_stringIcNS_11char_traitsIcEENS_9allocatorIcEEEE9TokenTypeEEPNS_11__tree_nodeIS9_PvEElEC1B7v160006ESD_, symObjAddr: 0x9CC4, symBinAddr: 0x10000CAB8, symSize: 0x34 }
  - { offsetInCU: 0x1FA85, offset: 0x1FA85, size: 0x8, addend: 0x0, symName: __ZNSt3__14pairINS_15__tree_iteratorINS_12__value_typeINS_12basic_stringIcNS_11char_traitsIcEENS_9allocatorIcEEEE9TokenTypeEEPNS_11__tree_nodeISA_PvEElEEbEC1B7v160006ISF_RbLSC_0EEEOT_OT0_, symObjAddr: 0x9CF8, symBinAddr: 0x10000CAEC, symSize: 0x3C }
  - { offsetInCU: 0x1FAE3, offset: 0x1FAE3, size: 0x8, addend: 0x0, symName: __ZNSt3__16__treeINS_12__value_typeINS_12basic_stringIcNS_11char_traitsIcEENS_9allocatorIcEEEE9TokenTypeEENS_19__map_value_compareIS7_S9_NS_4lessIS7_EELb1EEENS5_IS9_EEE3endB7v160006Ev, symObjAddr: 0x9D34, symBinAddr: 0x10000CB28, symSize: 0x34 }
  - { offsetInCU: 0x1FB09, offset: 0x1FB09, size: 0x8, addend: 0x0, symName: __ZNSt3__121__tree_const_iteratorINS_12__value_typeINS_12basic_stringIcNS_11char_traitsIcEENS_9allocatorIcEEEE9TokenTypeEEPNS_11__tree_nodeIS9_PvEElEC1B7v160006ENS_15__tree_iteratorIS9_SD_lEE, symObjAddr: 0x9D68, symBinAddr: 0x10000CB5C, symSize: 0x34 }
  - { offsetInCU: 0x1FB42, offset: 0x1FB42, size: 0x8, addend: 0x0, symName: __ZNSt3__16__treeINS_12__value_typeINS_12basic_stringIcNS_11char_traitsIcEENS_9allocatorIcEEEE9TokenTypeEENS_19__map_value_compareIS7_S9_NS_4lessIS7_EELb1EEENS5_IS9_EEE10value_compB7v160006Ev, symObjAddr: 0x9D9C, symBinAddr: 0x10000CB90, symSize: 0x28 }
  - { offsetInCU: 0x1FB68, offset: 0x1FB68, size: 0x8, addend: 0x0, symName: __ZNSt3__16__treeINS_12__value_typeINS_12basic_stringIcNS_11char_traitsIcEENS_9allocatorIcEEEE9TokenTypeEENS_19__map_value_compareIS7_S9_NS_4lessIS7_EELb1EEENS5_IS9_EEE5beginB7v160006Ev, symObjAddr: 0x9DC4, symBinAddr: 0x10000CBB8, symSize: 0x34 }
  - { offsetInCU: 0x1FB8E, offset: 0x1FB8E, size: 0x8, addend: 0x0, symName: __ZNSt3__121__tree_const_iteratorINS_12__value_typeINS_12basic_stringIcNS_11char_traitsIcEENS_9allocatorIcEEEE9TokenTypeEEPNS_11__tree_nodeIS9_PvEElEmmB7v160006Ev, symObjAddr: 0x9DF8, symBinAddr: 0x10000CBEC, symSize: 0x38 }
  - { offsetInCU: 0x1FBB4, offset: 0x1FBB4, size: 0x8, addend: 0x0, symName: __ZNSt3__16__treeINS_12__value_typeINS_12basic_stringIcNS_11char_traitsIcEENS_9allocatorIcEEEE9TokenTypeEENS_19__map_value_compareIS7_S9_NS_4lessIS7_EELb1EEENS5_IS9_EEE12__find_equalIS7_EERPNS_16__tree_node_baseIPvEERPNS_15__tree_end_nodeISK_EERKT_, symObjAddr: 0x9E30, symBinAddr: 0x10000CC24, symSize: 0x184 }
  - { offsetInCU: 0x1FC21, offset: 0x1FC21, size: 0x8, addend: 0x0, symName: __ZNSt3__115__tree_iteratorINS_12__value_typeINS_12basic_stringIcNS_11char_traitsIcEENS_9allocatorIcEEEE9TokenTypeEEPNS_11__tree_nodeIS9_PvEElEC1B7v160006EPNS_15__tree_end_nodeIPNS_16__tree_node_baseISB_EEEE, symObjAddr: 0xA004, symBinAddr: 0x10000CDF8, symSize: 0x34 }
  - { offsetInCU: 0x1FC5A, offset: 0x1FC5A, size: 0x8, addend: 0x0, symName: __ZNSt3__115__tree_iteratorINS_12__value_typeINS_12basic_stringIcNS_11char_traitsIcEENS_9allocatorIcEEEE9TokenTypeEEPNS_11__tree_nodeIS9_PvEElEC2B7v160006EPNS_15__tree_end_nodeIPNS_16__tree_node_baseISB_EEEE, symObjAddr: 0xA038, symBinAddr: 0x10000CE2C, symSize: 0x20 }
  - { offsetInCU: 0x1FC93, offset: 0x1FC93, size: 0x8, addend: 0x0, symName: __ZNSt3__121__tree_const_iteratorINS_12__value_typeINS_12basic_stringIcNS_11char_traitsIcEENS_9allocatorIcEEEE9TokenTypeEEPNS_11__tree_nodeIS9_PvEElEC2B7v160006ENS_15__tree_iteratorIS9_SD_lEE, symObjAddr: 0xA058, symBinAddr: 0x10000CE4C, symSize: 0x20 }
  - { offsetInCU: 0x1FCCC, offset: 0x1FCCC, size: 0x8, addend: 0x0, symName: __ZNSt3__117__compressed_pairImNS_19__map_value_compareINS_12basic_stringIcNS_11char_traitsIcEENS_9allocatorIcEEEENS_12__value_typeIS7_9TokenTypeEENS_4lessIS7_EELb1EEEE6secondB7v160006Ev, symObjAddr: 0xA078, symBinAddr: 0x10000CE6C, symSize: 0x24 }
  - { offsetInCU: 0x1FCF2, offset: 0x1FCF2, size: 0x8, addend: 0x0, symName: __ZNSt3__122__compressed_pair_elemINS_19__map_value_compareINS_12basic_stringIcNS_11char_traitsIcEENS_9allocatorIcEEEENS_12__value_typeIS7_9TokenTypeEENS_4lessIS7_EELb1EEELi1ELb1EE5__getB7v160006Ev, symObjAddr: 0xA09C, symBinAddr: 0x10000CE90, symSize: 0x14 }
  - { offsetInCU: 0x1FD18, offset: 0x1FD18, size: 0x8, addend: 0x0, symName: __ZNKSt3__116__tree_node_baseIPvE15__parent_unsafeB7v160006Ev, symObjAddr: 0xA1C0, symBinAddr: 0x10000CFB4, symSize: 0x18 }
  - { offsetInCU: 0x1FD3E, offset: 0x1FD3E, size: 0x8, addend: 0x0, symName: __ZNKSt3__16__treeINS_12__value_typeINS_12basic_stringIcNS_11char_traitsIcEENS_9allocatorIcEEEE9TokenTypeEENS_19__map_value_compareIS7_S9_NS_4lessIS7_EELb1EEENS5_IS9_EEE10__root_ptrEv, symObjAddr: 0xA1D8, symBinAddr: 0x10000CFCC, symSize: 0x24 }
  - { offsetInCU: 0x1FD64, offset: 0x1FD64, size: 0x8, addend: 0x0, symName: __ZNSt3__121__tree_const_iteratorINS_12__value_typeINS_12basic_stringIcNS_11char_traitsIcEENS_9allocatorIcEEEE9TokenTypeEEPNS_11__tree_nodeIS9_PvEElEppB7v160006Ev, symObjAddr: 0xA304, symBinAddr: 0x10000D0F8, symSize: 0x38 }
  - { offsetInCU: 0x1FD8A, offset: 0x1FD8A, size: 0x8, addend: 0x0, symName: __ZNSt3__16__treeINS_12__value_typeINS_12basic_stringIcNS_11char_traitsIcEENS_9allocatorIcEEEE9TokenTypeEENS_19__map_value_compareIS7_S9_NS_4lessIS7_EELb1EEENS5_IS9_EEE12__node_allocB7v160006Ev, symObjAddr: 0xA3FC, symBinAddr: 0x10000D1F0, symSize: 0x28 }
  - { offsetInCU: 0x1FDB0, offset: 0x1FDB0, size: 0x8, addend: 0x0, symName: __ZNSt3__116allocator_traitsINS_9allocatorINS_11__tree_nodeINS_12__value_typeINS_12basic_stringIcNS_11char_traitsIcEENS1_IcEEEE9TokenTypeEEPvEEEEE8allocateB7v160006ERSD_m, symObjAddr: 0xA424, symBinAddr: 0x10000D218, symSize: 0x2C }
  - { offsetInCU: 0x1FDE3, offset: 0x1FDE3, size: 0x8, addend: 0x0, symName: __ZNSt3__122__tree_node_destructorINS_9allocatorINS_11__tree_nodeINS_12__value_typeINS_12basic_stringIcNS_11char_traitsIcEENS1_IcEEEE9TokenTypeEEPvEEEEEC1B7v160006ERSD_b, symObjAddr: 0xA450, symBinAddr: 0x10000D244, symSize: 0x48 }
  - { offsetInCU: 0x1FE31, offset: 0x1FE31, size: 0x8, addend: 0x0, symName: __ZNSt3__110unique_ptrINS_11__tree_nodeINS_12__value_typeINS_12basic_stringIcNS_11char_traitsIcEENS_9allocatorIcEEEE9TokenTypeEEPvEENS_22__tree_node_destructorINS6_ISC_EEEEEC1B7v160006ILb1EvEEPSC_NS_16__dependent_typeINS_27__unique_ptr_deleter_sfinaeISF_EEXT_EE20__good_rval_ref_typeE, symObjAddr: 0xA498, symBinAddr: 0x10000D28C, symSize: 0x3C }
  - { offsetInCU: 0x1FE82, offset: 0x1FE82, size: 0x8, addend: 0x0, symName: __ZNSt3__116allocator_traitsINS_9allocatorINS_11__tree_nodeINS_12__value_typeINS_12basic_stringIcNS_11char_traitsIcEENS1_IcEEEE9TokenTypeEEPvEEEEE9constructB7v160006INS_4pairIKS8_S9_EEJRKSI_EvEEvRSD_PT_DpOT0_, symObjAddr: 0xA4D4, symBinAddr: 0x10000D2C8, symSize: 0x34 }
  - { offsetInCU: 0x1FED9, offset: 0x1FED9, size: 0x8, addend: 0x0, symName: __ZNSt3__122__tree_key_value_typesINS_12__value_typeINS_12basic_stringIcNS_11char_traitsIcEENS_9allocatorIcEEEE9TokenTypeEEE9__get_ptrB7v160006ERS9_, symObjAddr: 0xA508, symBinAddr: 0x10000D2FC, symSize: 0x24 }
  - { offsetInCU: 0x1FEFD, offset: 0x1FEFD, size: 0x8, addend: 0x0, symName: __ZNKSt3__110unique_ptrINS_11__tree_nodeINS_12__value_typeINS_12basic_stringIcNS_11char_traitsIcEENS_9allocatorIcEEEE9TokenTypeEEPvEENS_22__tree_node_destructorINS6_ISC_EEEEEptB7v160006Ev, symObjAddr: 0xA52C, symBinAddr: 0x10000D320, symSize: 0x28 }
  - { offsetInCU: 0x1FF23, offset: 0x1FF23, size: 0x8, addend: 0x0, symName: __ZNSt3__110unique_ptrINS_11__tree_nodeINS_12__value_typeINS_12basic_stringIcNS_11char_traitsIcEENS_9allocatorIcEEEE9TokenTypeEEPvEENS_22__tree_node_destructorINS6_ISC_EEEEE11get_deleterB7v160006Ev, symObjAddr: 0xA554, symBinAddr: 0x10000D348, symSize: 0x24 }
  - { offsetInCU: 0x1FF49, offset: 0x1FF49, size: 0x8, addend: 0x0, symName: __ZNSt3__117__compressed_pairINS_15__tree_end_nodeIPNS_16__tree_node_baseIPvEEEENS_9allocatorINS_11__tree_nodeINS_12__value_typeINS_12basic_stringIcNS_11char_traitsIcEENS7_IcEEEE9TokenTypeEES3_EEEEE6secondB7v160006Ev, symObjAddr: 0xA578, symBinAddr: 0x10000D36C, symSize: 0x24 }
  - { offsetInCU: 0x1FF6F, offset: 0x1FF6F, size: 0x8, addend: 0x0, symName: __ZNSt3__122__compressed_pair_elemINS_9allocatorINS_11__tree_nodeINS_12__value_typeINS_12basic_stringIcNS_11char_traitsIcEENS1_IcEEEE9TokenTypeEEPvEEEELi1ELb1EE5__getB7v160006Ev, symObjAddr: 0xA59C, symBinAddr: 0x10000D390, symSize: 0x14 }
  - { offsetInCU: 0x1FF95, offset: 0x1FF95, size: 0x8, addend: 0x0, symName: __ZNSt3__19allocatorINS_11__tree_nodeINS_12__value_typeINS_12basic_stringIcNS_11char_traitsIcEENS0_IcEEEE9TokenTypeEEPvEEE8allocateB7v160006Em, symObjAddr: 0xA5B0, symBinAddr: 0x10000D3A4, symSize: 0x58 }
  - { offsetInCU: 0x1FFD4, offset: 0x1FFD4, size: 0x8, addend: 0x0, symName: __ZNSt3__116allocator_traitsINS_9allocatorINS_11__tree_nodeINS_12__value_typeINS_12basic_stringIcNS_11char_traitsIcEENS1_IcEEEE9TokenTypeEEPvEEEEE8max_sizeB7v160006ISD_vEEmRKSD_, symObjAddr: 0xA608, symBinAddr: 0x10000D3FC, symSize: 0x24 }
  - { offsetInCU: 0x20002, offset: 0x20002, size: 0x8, addend: 0x0, symName: __ZNKSt3__19allocatorINS_11__tree_nodeINS_12__value_typeINS_12basic_stringIcNS_11char_traitsIcEENS0_IcEEEE9TokenTypeEEPvEEE8max_sizeB7v160006Ev, symObjAddr: 0xA62C, symBinAddr: 0x10000D420, symSize: 0x14 }
  - { offsetInCU: 0x20028, offset: 0x20028, size: 0x8, addend: 0x0, symName: __ZNSt3__122__tree_node_destructorINS_9allocatorINS_11__tree_nodeINS_12__value_typeINS_12basic_stringIcNS_11char_traitsIcEENS1_IcEEEE9TokenTypeEEPvEEEEEC2B7v160006ERSD_b, symObjAddr: 0xA640, symBinAddr: 0x10000D434, symSize: 0x38 }
  - { offsetInCU: 0x20070, offset: 0x20070, size: 0x8, addend: 0x0, symName: __ZNSt3__110unique_ptrINS_11__tree_nodeINS_12__value_typeINS_12basic_stringIcNS_11char_traitsIcEENS_9allocatorIcEEEE9TokenTypeEEPvEENS_22__tree_node_destructorINS6_ISC_EEEEEC2B7v160006ILb1EvEEPSC_NS_16__dependent_typeINS_27__unique_ptr_deleter_sfinaeISF_EEXT_EE20__good_rval_ref_typeE, symObjAddr: 0xA678, symBinAddr: 0x10000D46C, symSize: 0x48 }
  - { offsetInCU: 0x200C1, offset: 0x200C1, size: 0x8, addend: 0x0, symName: __ZNSt3__117__compressed_pairIPNS_11__tree_nodeINS_12__value_typeINS_12basic_stringIcNS_11char_traitsIcEENS_9allocatorIcEEEE9TokenTypeEEPvEENS_22__tree_node_destructorINS6_ISC_EEEEEC1B7v160006IRSD_SG_EEOT_OT0_, symObjAddr: 0xA6C0, symBinAddr: 0x10000D4B4, symSize: 0x3C }
  - { offsetInCU: 0x20119, offset: 0x20119, size: 0x8, addend: 0x0, symName: __ZNSt3__117__compressed_pairIPNS_11__tree_nodeINS_12__value_typeINS_12basic_stringIcNS_11char_traitsIcEENS_9allocatorIcEEEE9TokenTypeEEPvEENS_22__tree_node_destructorINS6_ISC_EEEEEC2B7v160006IRSD_SG_EEOT_OT0_, symObjAddr: 0xA6FC, symBinAddr: 0x10000D4F0, symSize: 0x48 }
  - { offsetInCU: 0x20171, offset: 0x20171, size: 0x8, addend: 0x0, symName: __ZNSt3__122__compressed_pair_elemIPNS_11__tree_nodeINS_12__value_typeINS_12basic_stringIcNS_11char_traitsIcEENS_9allocatorIcEEEE9TokenTypeEEPvEELi0ELb0EEC2B7v160006IRSD_vEEOT_, symObjAddr: 0xA744, symBinAddr: 0x10000D538, symSize: 0x24 }
  - { offsetInCU: 0x201B3, offset: 0x201B3, size: 0x8, addend: 0x0, symName: __ZNSt3__122__compressed_pair_elemINS_22__tree_node_destructorINS_9allocatorINS_11__tree_nodeINS_12__value_typeINS_12basic_stringIcNS_11char_traitsIcEENS2_IcEEEE9TokenTypeEEPvEEEEEELi1ELb0EEC2B7v160006ISF_vEEOT_, symObjAddr: 0xA768, symBinAddr: 0x10000D55C, symSize: 0x24 }
  - { offsetInCU: 0x201F5, offset: 0x201F5, size: 0x8, addend: 0x0, symName: __ZNSt3__19allocatorINS_11__tree_nodeINS_12__value_typeINS_12basic_stringIcNS_11char_traitsIcEENS0_IcEEEE9TokenTypeEEPvEEE9constructB7v160006INS_4pairIKS7_S8_EEJRKSG_EEEvPT_DpOT0_, symObjAddr: 0xA78C, symBinAddr: 0x10000D580, symSize: 0x30 }
  - { offsetInCU: 0x2024B, offset: 0x2024B, size: 0x8, addend: 0x0, symName: __ZNSt3__14pairIKNS_12basic_stringIcNS_11char_traitsIcEENS_9allocatorIcEEEE9TokenTypeEC1ERKS9_, symObjAddr: 0xA7BC, symBinAddr: 0x10000D5B0, symSize: 0x34 }
  - { offsetInCU: 0x20280, offset: 0x20280, size: 0x8, addend: 0x0, symName: __ZNSt3__14pairIKNS_12basic_stringIcNS_11char_traitsIcEENS_9allocatorIcEEEE9TokenTypeEC2ERKS9_, symObjAddr: 0xA7F0, symBinAddr: 0x10000D5E4, symSize: 0x40 }
  - { offsetInCU: 0x202B5, offset: 0x202B5, size: 0x8, addend: 0x0, symName: __ZNSt3__112__value_typeINS_12basic_stringIcNS_11char_traitsIcEENS_9allocatorIcEEEE9TokenTypeE11__get_valueB7v160006Ev, symObjAddr: 0xA830, symBinAddr: 0x10000D624, symSize: 0x24 }
  - { offsetInCU: 0x202DB, offset: 0x202DB, size: 0x8, addend: 0x0, symName: __ZNKSt3__117__compressed_pairIPNS_11__tree_nodeINS_12__value_typeINS_12basic_stringIcNS_11char_traitsIcEENS_9allocatorIcEEEE9TokenTypeEEPvEENS_22__tree_node_destructorINS6_ISC_EEEEE5firstB7v160006Ev, symObjAddr: 0xA88C, symBinAddr: 0x10000D680, symSize: 0x24 }
  - { offsetInCU: 0x20301, offset: 0x20301, size: 0x8, addend: 0x0, symName: __ZNKSt3__122__compressed_pair_elemIPNS_11__tree_nodeINS_12__value_typeINS_12basic_stringIcNS_11char_traitsIcEENS_9allocatorIcEEEE9TokenTypeEEPvEELi0ELb0EE5__getB7v160006Ev, symObjAddr: 0xA8B0, symBinAddr: 0x10000D6A4, symSize: 0x14 }
  - { offsetInCU: 0x20327, offset: 0x20327, size: 0x8, addend: 0x0, symName: __ZNSt3__117__compressed_pairIPNS_11__tree_nodeINS_12__value_typeINS_12basic_stringIcNS_11char_traitsIcEENS_9allocatorIcEEEE9TokenTypeEEPvEENS_22__tree_node_destructorINS6_ISC_EEEEE6secondB7v160006Ev, symObjAddr: 0xA8C4, symBinAddr: 0x10000D6B8, symSize: 0x28 }
  - { offsetInCU: 0x2034D, offset: 0x2034D, size: 0x8, addend: 0x0, symName: __ZNSt3__122__compressed_pair_elemINS_22__tree_node_destructorINS_9allocatorINS_11__tree_nodeINS_12__value_typeINS_12basic_stringIcNS_11char_traitsIcEENS2_IcEEEE9TokenTypeEEPvEEEEEELi1ELb0EE5__getB7v160006Ev, symObjAddr: 0xA8EC, symBinAddr: 0x10000D6E0, symSize: 0x14 }
  - { offsetInCU: 0x20373, offset: 0x20373, size: 0x8, addend: 0x0, symName: __ZNSt3__16__treeINS_12__value_typeINS_12basic_stringIcNS_11char_traitsIcEENS_9allocatorIcEEEE9TokenTypeEENS_19__map_value_compareIS7_S9_NS_4lessIS7_EELb1EEENS5_IS9_EEE4sizeB7v160006Ev, symObjAddr: 0xAB7C, symBinAddr: 0x10000D970, symSize: 0x28 }
  - { offsetInCU: 0x20399, offset: 0x20399, size: 0x8, addend: 0x0, symName: __ZNSt3__116__tree_node_baseIPvE12__set_parentB7v160006EPS2_, symObjAddr: 0xAD48, symBinAddr: 0x10000DB3C, symSize: 0x20 }
  - { offsetInCU: 0x203CE, offset: 0x203CE, size: 0x8, addend: 0x0, symName: __ZNSt3__117__compressed_pairImNS_19__map_value_compareINS_12basic_stringIcNS_11char_traitsIcEENS_9allocatorIcEEEENS_12__value_typeIS7_9TokenTypeEENS_4lessIS7_EELb1EEEE5firstB7v160006Ev, symObjAddr: 0xAD68, symBinAddr: 0x10000DB5C, symSize: 0x24 }
  - { offsetInCU: 0x203F4, offset: 0x203F4, size: 0x8, addend: 0x0, symName: __ZNSt3__122__compressed_pair_elemImLi0ELb0EE5__getB7v160006Ev, symObjAddr: 0xAD8C, symBinAddr: 0x10000DB80, symSize: 0x14 }
  - { offsetInCU: 0x2041A, offset: 0x2041A, size: 0x8, addend: 0x0, symName: __ZNSt3__117__compressed_pairIPNS_11__tree_nodeINS_12__value_typeINS_12basic_stringIcNS_11char_traitsIcEENS_9allocatorIcEEEE9TokenTypeEEPvEENS_22__tree_node_destructorINS6_ISC_EEEEE5firstB7v160006Ev, symObjAddr: 0xADA0, symBinAddr: 0x10000DB94, symSize: 0x24 }
  - { offsetInCU: 0x20440, offset: 0x20440, size: 0x8, addend: 0x0, symName: __ZNSt3__122__compressed_pair_elemIPNS_11__tree_nodeINS_12__value_typeINS_12basic_stringIcNS_11char_traitsIcEENS_9allocatorIcEEEE9TokenTypeEEPvEELi0ELb0EE5__getB7v160006Ev, symObjAddr: 0xADC4, symBinAddr: 0x10000DBB8, symSize: 0x14 }
  - { offsetInCU: 0x20466, offset: 0x20466, size: 0x8, addend: 0x0, symName: __ZNSt3__110unique_ptrINS_11__tree_nodeINS_12__value_typeINS_12basic_stringIcNS_11char_traitsIcEENS_9allocatorIcEEEE9TokenTypeEEPvEENS_22__tree_node_destructorINS6_ISC_EEEEED2B7v160006Ev, symObjAddr: 0xADD8, symBinAddr: 0x10000DBCC, symSize: 0x30 }
  - { offsetInCU: 0x20490, offset: 0x20490, size: 0x8, addend: 0x0, symName: __ZNSt3__110unique_ptrINS_11__tree_nodeINS_12__value_typeINS_12basic_stringIcNS_11char_traitsIcEENS_9allocatorIcEEEE9TokenTypeEEPvEENS_22__tree_node_destructorINS6_ISC_EEEEE5resetB7v160006EPSC_, symObjAddr: 0xAE08, symBinAddr: 0x10000DBFC, symSize: 0x78 }
  - { offsetInCU: 0x204D4, offset: 0x204D4, size: 0x8, addend: 0x0, symName: __ZNSt3__122__tree_node_destructorINS_9allocatorINS_11__tree_nodeINS_12__value_typeINS_12basic_stringIcNS_11char_traitsIcEENS1_IcEEEE9TokenTypeEEPvEEEEEclB7v160006EPSC_, symObjAddr: 0xAE80, symBinAddr: 0x10000DC74, symSize: 0x98 }
  - { offsetInCU: 0x20509, offset: 0x20509, size: 0x8, addend: 0x0, symName: __ZNSt3__116allocator_traitsINS_9allocatorINS_11__tree_nodeINS_12__value_typeINS_12basic_stringIcNS_11char_traitsIcEENS1_IcEEEE9TokenTypeEEPvEEEEE7destroyB7v160006INS_4pairIKS8_S9_EEvvEEvRSD_PT_, symObjAddr: 0xAF18, symBinAddr: 0x10000DD0C, symSize: 0x28 }
  - { offsetInCU: 0x20543, offset: 0x20543, size: 0x8, addend: 0x0, symName: __ZNSt3__116allocator_traitsINS_9allocatorINS_11__tree_nodeINS_12__value_typeINS_12basic_stringIcNS_11char_traitsIcEENS1_IcEEEE9TokenTypeEEPvEEEEE10deallocateB7v160006ERSD_PSC_m, symObjAddr: 0xAF40, symBinAddr: 0x10000DD34, symSize: 0x34 }
  - { offsetInCU: 0x20585, offset: 0x20585, size: 0x8, addend: 0x0, symName: __ZNSt3__19allocatorINS_11__tree_nodeINS_12__value_typeINS_12basic_stringIcNS_11char_traitsIcEENS0_IcEEEE9TokenTypeEEPvEEE10deallocateB7v160006EPSB_m, symObjAddr: 0xAF74, symBinAddr: 0x10000DD68, symSize: 0x40 }
  - { offsetInCU: 0x205C7, offset: 0x205C7, size: 0x8, addend: 0x0, symName: __ZNSt3__115__tree_iteratorINS_12__value_typeINS_12basic_stringIcNS_11char_traitsIcEENS_9allocatorIcEEEE9TokenTypeEEPNS_11__tree_nodeIS9_PvEElEC2B7v160006ESD_, symObjAddr: 0xAFB4, symBinAddr: 0x10000DDA8, symSize: 0x20 }
  - { offsetInCU: 0x20600, offset: 0x20600, size: 0x8, addend: 0x0, symName: __ZNSt3__14pairINS_15__tree_iteratorINS_12__value_typeINS_12basic_stringIcNS_11char_traitsIcEENS_9allocatorIcEEEE9TokenTypeEEPNS_11__tree_nodeISA_PvEElEEbEC2B7v160006ISF_RbLSC_0EEEOT_OT0_, symObjAddr: 0xAFD4, symBinAddr: 0x10000DDC8, symSize: 0x38 }
  - { offsetInCU: 0x2065E, offset: 0x2065E, size: 0x8, addend: 0x0, symName: __ZNSt3__114__map_iteratorINS_15__tree_iteratorINS_12__value_typeINS_12basic_stringIcNS_11char_traitsIcEENS_9allocatorIcEEEE9TokenTypeEEPNS_11__tree_nodeISA_PvEElEEEC2B7v160006ESF_, symObjAddr: 0xB00C, symBinAddr: 0x10000DE00, symSize: 0x20 }
  - { offsetInCU: 0x20697, offset: 0x20697, size: 0x8, addend: 0x0, symName: __ZNSt3__16__treeINS_12__value_typeINS_12basic_stringIcNS_11char_traitsIcEENS_9allocatorIcEEEE9TokenTypeEENS_19__map_value_compareIS7_S9_NS_4lessIS7_EELb1EEENS5_IS9_EEED2Ev, symObjAddr: 0xB02C, symBinAddr: 0x10000DE20, symSize: 0x38 }
  - { offsetInCU: 0x206C3, offset: 0x206C3, size: 0x8, addend: 0x0, symName: __ZNSt3__16__treeINS_12__value_typeINS_12basic_stringIcNS_11char_traitsIcEENS_9allocatorIcEEEE9TokenTypeEENS_19__map_value_compareIS7_S9_NS_4lessIS7_EELb1EEENS5_IS9_EEE7destroyEPNS_11__tree_nodeIS9_PvEE, symObjAddr: 0xB064, symBinAddr: 0x10000DE58, symSize: 0xA8 }
  - { offsetInCU: 0x2070F, offset: 0x2070F, size: 0x8, addend: 0x0, symName: __ZNSt3__13mapINS_12basic_stringIcNS_11char_traitsIcEENS_9allocatorIcEEEE9TokenTypeNS_4lessIS6_EENS4_INS_4pairIKS6_S7_EEEEED2B7v160006Ev, symObjAddr: 0xB10C, symBinAddr: 0x10000DF00, symSize: 0x2C }
  - { offsetInCU: 0x20739, offset: 0x20739, size: 0x8, addend: 0x0, symName: __ZNSt3__16vectorI5TokenNS_9allocatorIS1_EEE11__make_iterB7v160006EPS1_, symObjAddr: 0xB138, symBinAddr: 0x10000DF2C, symSize: 0x34 }
  - { offsetInCU: 0x2076E, offset: 0x2076E, size: 0x8, addend: 0x0, symName: __ZNSt3__111__wrap_iterIP5TokenEC1B7v160006EPKvS2_, symObjAddr: 0xB16C, symBinAddr: 0x10000DF60, symSize: 0x3C }
  - { offsetInCU: 0x207B4, offset: 0x207B4, size: 0x8, addend: 0x0, symName: __ZNSt3__111__wrap_iterIP5TokenEC2B7v160006EPKvS2_, symObjAddr: 0xB1A8, symBinAddr: 0x10000DF9C, symSize: 0x24 }
  - { offsetInCU: 0x20817, offset: 0x20817, size: 0x8, addend: 0x0, symName: __ZNKSt3__113basic_istreamIcNS_11char_traitsIcEEE6sentrycvbB7v160006Ev, symObjAddr: 0xB404, symBinAddr: 0x10000E1F8, symSize: 0x1C }
  - { offsetInCU: 0x2083D, offset: 0x2083D, size: 0x8, addend: 0x0, symName: __ZNSt3__112basic_stringIcNS_11char_traitsIcEENS_9allocatorIcEEE5clearB7v160006Ev, symObjAddr: 0xB420, symBinAddr: 0x10000E214, symSize: 0x88 }
  - { offsetInCU: 0x20865, offset: 0x20865, size: 0x8, addend: 0x0, symName: __ZNSt3__115basic_streambufIcNS_11char_traitsIcEEE6sbumpcB7v160006Ev, symObjAddr: 0xB4A8, symBinAddr: 0x10000E29C, symSize: 0x78 }
  - { offsetInCU: 0x2088B, offset: 0x2088B, size: 0x8, addend: 0x0, symName: __ZNSt3__111char_traitsIcE12to_char_typeEi, symObjAddr: 0xB520, symBinAddr: 0x10000E314, symSize: 0x18 }
  - { offsetInCU: 0x208AE, offset: 0x208AE, size: 0x8, addend: 0x0, symName: __ZNSt3__111char_traitsIcE2eqEcc, symObjAddr: 0xB538, symBinAddr: 0x10000E32C, symSize: 0x28 }
  - { offsetInCU: 0x208DF, offset: 0x208DF, size: 0x8, addend: 0x0, symName: __ZNKSt3__112basic_stringIcNS_11char_traitsIcEENS_9allocatorIcEEE8max_sizeB7v160006Ev, symObjAddr: 0xB560, symBinAddr: 0x10000E354, symSize: 0xAC }
  - { offsetInCU: 0x20931, offset: 0x20931, size: 0x8, addend: 0x0, symName: __ZNSt3__18ios_base18__setstate_nothrowB7v160006Ej, symObjAddr: 0xB60C, symBinAddr: 0x10000E400, symSize: 0x64 }
  - { offsetInCU: 0x20966, offset: 0x20966, size: 0x8, addend: 0x0, symName: __ZNKSt3__19basic_iosIcNS_11char_traitsIcEEE10exceptionsB7v160006Ev, symObjAddr: 0xB670, symBinAddr: 0x10000E464, symSize: 0x24 }
  - { offsetInCU: 0x2098C, offset: 0x2098C, size: 0x8, addend: 0x0, symName: __ZNSt3__112basic_stringIcNS_11char_traitsIcEENS_9allocatorIcEEE15__set_long_sizeB7v160006Em, symObjAddr: 0xB6A4, symBinAddr: 0x10000E498, symSize: 0x38 }
  - { offsetInCU: 0x209C1, offset: 0x209C1, size: 0x8, addend: 0x0, symName: __ZNSt3__111char_traitsIcE11to_int_typeEc, symObjAddr: 0xB6DC, symBinAddr: 0x10000E4D0, symSize: 0x14 }
  - { offsetInCU: 0x209EF, offset: 0x209EF, size: 0x8, addend: 0x0, symName: __ZNSt3__116allocator_traitsINS_9allocatorIcEEE8max_sizeB7v160006IS2_vEEmRKS2_, symObjAddr: 0xB6F0, symBinAddr: 0x10000E4E4, symSize: 0x24 }
  - { offsetInCU: 0x20A1D, offset: 0x20A1D, size: 0x8, addend: 0x0, symName: __ZNKSt3__112basic_stringIcNS_11char_traitsIcEENS_9allocatorIcEEE7__allocB7v160006Ev, symObjAddr: 0xB714, symBinAddr: 0x10000E508, symSize: 0x24 }
  - { offsetInCU: 0x20A43, offset: 0x20A43, size: 0x8, addend: 0x0, symName: __ZNSt3__114numeric_limitsImE3maxB7v160006Ev, symObjAddr: 0xB738, symBinAddr: 0x10000E52C, symSize: 0x14 }
  - { offsetInCU: 0x20A57, offset: 0x20A57, size: 0x8, addend: 0x0, symName: __ZNKSt3__19allocatorIcE8max_sizeB7v160006Ev, symObjAddr: 0xB74C, symBinAddr: 0x10000E540, symSize: 0x14 }
  - { offsetInCU: 0x20A7D, offset: 0x20A7D, size: 0x8, addend: 0x0, symName: __ZNKSt3__117__compressed_pairINS_12basic_stringIcNS_11char_traitsIcEENS_9allocatorIcEEE5__repES5_E6secondB7v160006Ev, symObjAddr: 0xB760, symBinAddr: 0x10000E554, symSize: 0x24 }
  - { offsetInCU: 0x20AA3, offset: 0x20AA3, size: 0x8, addend: 0x0, symName: __ZNKSt3__122__compressed_pair_elemINS_9allocatorIcEELi1ELb1EE5__getB7v160006Ev, symObjAddr: 0xB784, symBinAddr: 0x10000E578, symSize: 0x14 }
  - { offsetInCU: 0x20AC9, offset: 0x20AC9, size: 0x8, addend: 0x0, symName: __ZNSt3__123__libcpp_numeric_limitsImLb1EE3maxB7v160006Ev, symObjAddr: 0xB798, symBinAddr: 0x10000E58C, symSize: 0x8 }
  - { offsetInCU: 0x20ADD, offset: 0x20ADD, size: 0x8, addend: 0x0, symName: __ZNKSt3__18ios_base10exceptionsB7v160006Ev, symObjAddr: 0xB7A0, symBinAddr: 0x10000E594, symSize: 0x18 }
...
